Archive member included to satisfy reference by file (symbol)

c:/program files (x86)/atollic/truestudio for arm 7.1.0/armtools/bin/../lib/gcc/arm-atollic-eabi/5.3.1/../../../../arm-atollic-eabi/lib/armv7-m\libc_nano.a(lib_a-calloc.o)
                              dlms\src\cosem.o (calloc)
c:/program files (x86)/atollic/truestudio for arm 7.1.0/armtools/bin/../lib/gcc/arm-atollic-eabi/5.3.1/../../../../arm-atollic-eabi/lib/armv7-m\libc_nano.a(lib_a-impure.o)
                              c:/program files (x86)/atollic/truestudio for arm 7.1.0/armtools/bin/../lib/gcc/arm-atollic-eabi/5.3.1/../../../../arm-atollic-eabi/lib/armv7-m\libc_nano.a(lib_a-calloc.o) (_impure_ptr)
c:/program files (x86)/atollic/truestudio for arm 7.1.0/armtools/bin/../lib/gcc/arm-atollic-eabi/5.3.1/../../../../arm-atollic-eabi/lib/armv7-m\libc_nano.a(lib_a-init.o)
                              src\startup_LPC17xx.o (__libc_init_array)
c:/program files (x86)/atollic/truestudio for arm 7.1.0/armtools/bin/../lib/gcc/arm-atollic-eabi/5.3.1/../../../../arm-atollic-eabi/lib/armv7-m\libc_nano.a(lib_a-lcltime.o)
                              dlms\src\date.o (localtime)
c:/program files (x86)/atollic/truestudio for arm 7.1.0/armtools/bin/../lib/gcc/arm-atollic-eabi/5.3.1/../../../../arm-atollic-eabi/lib/armv7-m\libc_nano.a(lib_a-lcltime_r.o)
                              c:/program files (x86)/atollic/truestudio for arm 7.1.0/armtools/bin/../lib/gcc/arm-atollic-eabi/5.3.1/../../../../arm-atollic-eabi/lib/armv7-m\libc_nano.a(lib_a-lcltime.o) (localtime_r)
c:/program files (x86)/atollic/truestudio for arm 7.1.0/armtools/bin/../lib/gcc/arm-atollic-eabi/5.3.1/../../../../arm-atollic-eabi/lib/armv7-m\libc_nano.a(lib_a-malloc.o)
                              dlms\src\apdu.o (malloc)
c:/program files (x86)/atollic/truestudio for arm 7.1.0/armtools/bin/../lib/gcc/arm-atollic-eabi/5.3.1/../../../../arm-atollic-eabi/lib/armv7-m\libc_nano.a(lib_a-memcmp.o)
                              dlms\src\bytebuffer.o (memcmp)
c:/program files (x86)/atollic/truestudio for arm 7.1.0/armtools/bin/../lib/gcc/arm-atollic-eabi/5.3.1/../../../../arm-atollic-eabi/lib/armv7-m\libc_nano.a(lib_a-memcpy-stub.o)
                              dlms\src\bitarray.o (memcpy)
c:/program files (x86)/atollic/truestudio for arm 7.1.0/armtools/bin/../lib/gcc/arm-atollic-eabi/5.3.1/../../../../arm-atollic-eabi/lib/armv7-m\libc_nano.a(lib_a-memmove.o)
                              dlms\src\bytebuffer.o (memmove)
c:/program files (x86)/atollic/truestudio for arm 7.1.0/armtools/bin/../lib/gcc/arm-atollic-eabi/5.3.1/../../../../arm-atollic-eabi/lib/armv7-m\libc_nano.a(lib_a-memset.o)
                              dlms\src\bytebuffer.o (memset)
c:/program files (x86)/atollic/truestudio for arm 7.1.0/armtools/bin/../lib/gcc/arm-atollic-eabi/5.3.1/../../../../arm-atollic-eabi/lib/armv7-m\libc_nano.a(lib_a-mktime.o)
                              dlms\src\date.o (mktime)
c:/program files (x86)/atollic/truestudio for arm 7.1.0/armtools/bin/../lib/gcc/arm-atollic-eabi/5.3.1/../../../../arm-atollic-eabi/lib/armv7-m\libc_nano.a(lib_a-month_lengths.o)
                              c:/program files (x86)/atollic/truestudio for arm 7.1.0/armtools/bin/../lib/gcc/arm-atollic-eabi/5.3.1/../../../../arm-atollic-eabi/lib/armv7-m\libc_nano.a(lib_a-lcltime_r.o) (__month_lengths)
c:/program files (x86)/atollic/truestudio for arm 7.1.0/armtools/bin/../lib/gcc/arm-atollic-eabi/5.3.1/../../../../arm-atollic-eabi/lib/armv7-m\libc_nano.a(lib_a-nano-callocr.o)
                              c:/program files (x86)/atollic/truestudio for arm 7.1.0/armtools/bin/../lib/gcc/arm-atollic-eabi/5.3.1/../../../../arm-atollic-eabi/lib/armv7-m\libc_nano.a(lib_a-calloc.o) (_calloc_r)
c:/program files (x86)/atollic/truestudio for arm 7.1.0/armtools/bin/../lib/gcc/arm-atollic-eabi/5.3.1/../../../../arm-atollic-eabi/lib/armv7-m\libc_nano.a(lib_a-nano-freer.o)
                              c:/program files (x86)/atollic/truestudio for arm 7.1.0/armtools/bin/../lib/gcc/arm-atollic-eabi/5.3.1/../../../../arm-atollic-eabi/lib/armv7-m\libc_nano.a(lib_a-malloc.o) (_free_r)
c:/program files (x86)/atollic/truestudio for arm 7.1.0/armtools/bin/../lib/gcc/arm-atollic-eabi/5.3.1/../../../../arm-atollic-eabi/lib/armv7-m\libc_nano.a(lib_a-nano-mallocr.o)
                              c:/program files (x86)/atollic/truestudio for arm 7.1.0/armtools/bin/../lib/gcc/arm-atollic-eabi/5.3.1/../../../../arm-atollic-eabi/lib/armv7-m\libc_nano.a(lib_a-malloc.o) (_malloc_r)
c:/program files (x86)/atollic/truestudio for arm 7.1.0/armtools/bin/../lib/gcc/arm-atollic-eabi/5.3.1/../../../../arm-atollic-eabi/lib/armv7-m\libc_nano.a(lib_a-printf.o)
                              dlms\src\date.o (printf)
c:/program files (x86)/atollic/truestudio for arm 7.1.0/armtools/bin/../lib/gcc/arm-atollic-eabi/5.3.1/../../../../arm-atollic-eabi/lib/armv7-m\libc_nano.a(lib_a-puts.o)
                              src\main.o (puts)
c:/program files (x86)/atollic/truestudio for arm 7.1.0/armtools/bin/../lib/gcc/arm-atollic-eabi/5.3.1/../../../../arm-atollic-eabi/lib/armv7-m\libc_nano.a(lib_a-realloc.o)
                              dlms\src\bitarray.o (realloc)
c:/program files (x86)/atollic/truestudio for arm 7.1.0/armtools/bin/../lib/gcc/arm-atollic-eabi/5.3.1/../../../../arm-atollic-eabi/lib/armv7-m\libc_nano.a(lib_a-sbrkr.o)
                              c:/program files (x86)/atollic/truestudio for arm 7.1.0/armtools/bin/../lib/gcc/arm-atollic-eabi/5.3.1/../../../../arm-atollic-eabi/lib/armv7-m\libc_nano.a(lib_a-nano-mallocr.o) (_sbrk_r)
c:/program files (x86)/atollic/truestudio for arm 7.1.0/armtools/bin/../lib/gcc/arm-atollic-eabi/5.3.1/../../../../arm-atollic-eabi/lib/armv7-m\libc_nano.a(lib_a-sprintf.o)
                              dlms\src\bytebuffer.o (sprintf)
c:/program files (x86)/atollic/truestudio for arm 7.1.0/armtools/bin/../lib/gcc/arm-atollic-eabi/5.3.1/../../../../arm-atollic-eabi/lib/armv7-m\libc_nano.a(lib_a-sscanf.o)
                              dlms\src\variant.o (sscanf)
c:/program files (x86)/atollic/truestudio for arm 7.1.0/armtools/bin/../lib/gcc/arm-atollic-eabi/5.3.1/../../../../arm-atollic-eabi/lib/armv7-m\libc_nano.a(lib_a-stdio.o)
                              c:/program files (x86)/atollic/truestudio for arm 7.1.0/armtools/bin/../lib/gcc/arm-atollic-eabi/5.3.1/../../../../arm-atollic-eabi/lib/armv7-m\libc_nano.a(lib_a-sscanf.o) (__seofread)
c:/program files (x86)/atollic/truestudio for arm 7.1.0/armtools/bin/../lib/gcc/arm-atollic-eabi/5.3.1/../../../../arm-atollic-eabi/lib/armv7-m\libc_nano.a(lib_a-strcat.o)
                              dlms\src\converters.o (strcat)
c:/program files (x86)/atollic/truestudio for arm 7.1.0/armtools/bin/../lib/gcc/arm-atollic-eabi/5.3.1/../../../../arm-atollic-eabi/lib/armv7-m\libc_nano.a(lib_a-strchr.o)
                              dlms\src\helpers.o (strchr)
c:/program files (x86)/atollic/truestudio for arm 7.1.0/armtools/bin/../lib/gcc/arm-atollic-eabi/5.3.1/../../../../arm-atollic-eabi/lib/armv7-m\libc_nano.a(lib_a-strcmp.o)
                              dlms\src\apdu.o (strcmp)
c:/program files (x86)/atollic/truestudio for arm 7.1.0/armtools/bin/../lib/gcc/arm-atollic-eabi/5.3.1/../../../../arm-atollic-eabi/lib/armv7-m\libc_nano.a(lib_a-strlen.o)
                              dlms\src\apdu.o (strlen)
c:/program files (x86)/atollic/truestudio for arm 7.1.0/armtools/bin/../lib/gcc/arm-atollic-eabi/5.3.1/../../../../arm-atollic-eabi/lib/armv7-m\libc_nano.a(lib_a-tzcalc_limits.o)
                              c:/program files (x86)/atollic/truestudio for arm 7.1.0/armtools/bin/../lib/gcc/arm-atollic-eabi/5.3.1/../../../../arm-atollic-eabi/lib/armv7-m\libc_nano.a(lib_a-lcltime_r.o) (__tzcalc_limits)
c:/program files (x86)/atollic/truestudio for arm 7.1.0/armtools/bin/../lib/gcc/arm-atollic-eabi/5.3.1/../../../../arm-atollic-eabi/lib/armv7-m\libc_nano.a(lib_a-tzlock.o)
                              c:/program files (x86)/atollic/truestudio for arm 7.1.0/armtools/bin/../lib/gcc/arm-atollic-eabi/5.3.1/../../../../arm-atollic-eabi/lib/armv7-m\libc_nano.a(lib_a-lcltime_r.o) (__tz_lock)
c:/program files (x86)/atollic/truestudio for arm 7.1.0/armtools/bin/../lib/gcc/arm-atollic-eabi/5.3.1/../../../../arm-atollic-eabi/lib/armv7-m\libc_nano.a(lib_a-tzset.o)
                              c:/program files (x86)/atollic/truestudio for arm 7.1.0/armtools/bin/../lib/gcc/arm-atollic-eabi/5.3.1/../../../../arm-atollic-eabi/lib/armv7-m\libc_nano.a(lib_a-lcltime_r.o) (_tzset_unlocked)
c:/program files (x86)/atollic/truestudio for arm 7.1.0/armtools/bin/../lib/gcc/arm-atollic-eabi/5.3.1/../../../../arm-atollic-eabi/lib/armv7-m\libc_nano.a(lib_a-tzset_r.o)
                              c:/program files (x86)/atollic/truestudio for arm 7.1.0/armtools/bin/../lib/gcc/arm-atollic-eabi/5.3.1/../../../../arm-atollic-eabi/lib/armv7-m\libc_nano.a(lib_a-tzset.o) (_tzset_unlocked_r)
c:/program files (x86)/atollic/truestudio for arm 7.1.0/armtools/bin/../lib/gcc/arm-atollic-eabi/5.3.1/../../../../arm-atollic-eabi/lib/armv7-m\libc_nano.a(lib_a-tzvars.o)
                              c:/program files (x86)/atollic/truestudio for arm 7.1.0/armtools/bin/../lib/gcc/arm-atollic-eabi/5.3.1/../../../../arm-atollic-eabi/lib/armv7-m\libc_nano.a(lib_a-tzset_r.o) (_timezone)
c:/program files (x86)/atollic/truestudio for arm 7.1.0/armtools/bin/../lib/gcc/arm-atollic-eabi/5.3.1/../../../../arm-atollic-eabi/lib/armv7-m\libc_nano.a(lib_a-wbuf.o)
                              c:/program files (x86)/atollic/truestudio for arm 7.1.0/armtools/bin/../lib/gcc/arm-atollic-eabi/5.3.1/../../../../arm-atollic-eabi/lib/armv7-m\libc_nano.a(lib_a-puts.o) (__swbuf_r)
c:/program files (x86)/atollic/truestudio for arm 7.1.0/armtools/bin/../lib/gcc/arm-atollic-eabi/5.3.1/../../../../arm-atollic-eabi/lib/armv7-m\libc_nano.a(lib_a-writer.o)
                              c:/program files (x86)/atollic/truestudio for arm 7.1.0/armtools/bin/../lib/gcc/arm-atollic-eabi/5.3.1/../../../../arm-atollic-eabi/lib/armv7-m\libc_nano.a(lib_a-stdio.o) (_write_r)
c:/program files (x86)/atollic/truestudio for arm 7.1.0/armtools/bin/../lib/gcc/arm-atollic-eabi/5.3.1/../../../../arm-atollic-eabi/lib/armv7-m\libc_nano.a(lib_a-wsetup.o)
                              c:/program files (x86)/atollic/truestudio for arm 7.1.0/armtools/bin/../lib/gcc/arm-atollic-eabi/5.3.1/../../../../arm-atollic-eabi/lib/armv7-m\libc_nano.a(lib_a-puts.o) (__swsetup_r)
c:/program files (x86)/atollic/truestudio for arm 7.1.0/armtools/bin/../lib/gcc/arm-atollic-eabi/5.3.1/../../../../arm-atollic-eabi/lib/armv7-m\libc_nano.a(lib_a-closer.o)
                              c:/program files (x86)/atollic/truestudio for arm 7.1.0/armtools/bin/../lib/gcc/arm-atollic-eabi/5.3.1/../../../../arm-atollic-eabi/lib/armv7-m\libc_nano.a(lib_a-stdio.o) (_close_r)
c:/program files (x86)/atollic/truestudio for arm 7.1.0/armtools/bin/../lib/gcc/arm-atollic-eabi/5.3.1/../../../../arm-atollic-eabi/lib/armv7-m\libc_nano.a(lib_a-div.o)
                              c:/program files (x86)/atollic/truestudio for arm 7.1.0/armtools/bin/../lib/gcc/arm-atollic-eabi/5.3.1/../../../../arm-atollic-eabi/lib/armv7-m\libc_nano.a(lib_a-mktime.o) (div)
c:/program files (x86)/atollic/truestudio for arm 7.1.0/armtools/bin/../lib/gcc/arm-atollic-eabi/5.3.1/../../../../arm-atollic-eabi/lib/armv7-m\libc_nano.a(lib_a-fflush.o)
                              c:/program files (x86)/atollic/truestudio for arm 7.1.0/armtools/bin/../lib/gcc/arm-atollic-eabi/5.3.1/../../../../arm-atollic-eabi/lib/armv7-m\libc_nano.a(lib_a-wbuf.o) (_fflush_r)
c:/program files (x86)/atollic/truestudio for arm 7.1.0/armtools/bin/../lib/gcc/arm-atollic-eabi/5.3.1/../../../../arm-atollic-eabi/lib/armv7-m\libc_nano.a(lib_a-findfp.o)
                              c:/program files (x86)/atollic/truestudio for arm 7.1.0/armtools/bin/../lib/gcc/arm-atollic-eabi/5.3.1/../../../../arm-atollic-eabi/lib/armv7-m\libc_nano.a(lib_a-printf.o) (__sinit)
c:/program files (x86)/atollic/truestudio for arm 7.1.0/armtools/bin/../lib/gcc/arm-atollic-eabi/5.3.1/../../../../arm-atollic-eabi/lib/armv7-m\libc_nano.a(lib_a-fwalk.o)
                              c:/program files (x86)/atollic/truestudio for arm 7.1.0/armtools/bin/../lib/gcc/arm-atollic-eabi/5.3.1/../../../../arm-atollic-eabi/lib/armv7-m\libc_nano.a(lib_a-findfp.o) (_fwalk)
c:/program files (x86)/atollic/truestudio for arm 7.1.0/armtools/bin/../lib/gcc/arm-atollic-eabi/5.3.1/../../../../arm-atollic-eabi/lib/armv7-m\libc_nano.a(lib_a-getenv_r.o)
                              c:/program files (x86)/atollic/truestudio for arm 7.1.0/armtools/bin/../lib/gcc/arm-atollic-eabi/5.3.1/../../../../arm-atollic-eabi/lib/armv7-m\libc_nano.a(lib_a-tzset_r.o) (_getenv_r)
c:/program files (x86)/atollic/truestudio for arm 7.1.0/armtools/bin/../lib/gcc/arm-atollic-eabi/5.3.1/../../../../arm-atollic-eabi/lib/armv7-m\libc_nano.a(lib_a-gettzinfo.o)
                              c:/program files (x86)/atollic/truestudio for arm 7.1.0/armtools/bin/../lib/gcc/arm-atollic-eabi/5.3.1/../../../../arm-atollic-eabi/lib/armv7-m\libc_nano.a(lib_a-lcltime_r.o) (__gettzinfo)
c:/program files (x86)/atollic/truestudio for arm 7.1.0/armtools/bin/../lib/gcc/arm-atollic-eabi/5.3.1/../../../../arm-atollic-eabi/lib/armv7-m\libc_nano.a(lib_a-gmtime_r.o)
                              c:/program files (x86)/atollic/truestudio for arm 7.1.0/armtools/bin/../lib/gcc/arm-atollic-eabi/5.3.1/../../../../arm-atollic-eabi/lib/armv7-m\libc_nano.a(lib_a-lcltime_r.o) (gmtime_r)
c:/program files (x86)/atollic/truestudio for arm 7.1.0/armtools/bin/../lib/gcc/arm-atollic-eabi/5.3.1/../../../../arm-atollic-eabi/lib/armv7-m\libc_nano.a(lib_a-lseekr.o)
                              c:/program files (x86)/atollic/truestudio for arm 7.1.0/armtools/bin/../lib/gcc/arm-atollic-eabi/5.3.1/../../../../arm-atollic-eabi/lib/armv7-m\libc_nano.a(lib_a-stdio.o) (_lseek_r)
c:/program files (x86)/atollic/truestudio for arm 7.1.0/armtools/bin/../lib/gcc/arm-atollic-eabi/5.3.1/../../../../arm-atollic-eabi/lib/armv7-m\libc_nano.a(lib_a-makebuf.o)
                              c:/program files (x86)/atollic/truestudio for arm 7.1.0/armtools/bin/../lib/gcc/arm-atollic-eabi/5.3.1/../../../../arm-atollic-eabi/lib/armv7-m\libc_nano.a(lib_a-wsetup.o) (__smakebuf_r)
c:/program files (x86)/atollic/truestudio for arm 7.1.0/armtools/bin/../lib/gcc/arm-atollic-eabi/5.3.1/../../../../arm-atollic-eabi/lib/armv7-m\libc_nano.a(lib_a-mlock.o)
                              c:/program files (x86)/atollic/truestudio for arm 7.1.0/armtools/bin/../lib/gcc/arm-atollic-eabi/5.3.1/../../../../arm-atollic-eabi/lib/armv7-m\libc_nano.a(lib_a-nano-freer.o) (__malloc_lock)
c:/program files (x86)/atollic/truestudio for arm 7.1.0/armtools/bin/../lib/gcc/arm-atollic-eabi/5.3.1/../../../../arm-atollic-eabi/lib/armv7-m\libc_nano.a(lib_a-nano-reallocr.o)
                              c:/program files (x86)/atollic/truestudio for arm 7.1.0/armtools/bin/../lib/gcc/arm-atollic-eabi/5.3.1/../../../../arm-atollic-eabi/lib/armv7-m\libc_nano.a(lib_a-realloc.o) (_realloc_r)
c:/program files (x86)/atollic/truestudio for arm 7.1.0/armtools/bin/../lib/gcc/arm-atollic-eabi/5.3.1/../../../../arm-atollic-eabi/lib/armv7-m\libc_nano.a(lib_a-nano-svfprintf.o)
                              c:/program files (x86)/atollic/truestudio for arm 7.1.0/armtools/bin/../lib/gcc/arm-atollic-eabi/5.3.1/../../../../arm-atollic-eabi/lib/armv7-m\libc_nano.a(lib_a-sprintf.o) (_svfprintf_r)
c:/program files (x86)/atollic/truestudio for arm 7.1.0/armtools/bin/../lib/gcc/arm-atollic-eabi/5.3.1/../../../../arm-atollic-eabi/lib/armv7-m\libc_nano.a(lib_a-nano-svfscanf.o)
                              c:/program files (x86)/atollic/truestudio for arm 7.1.0/armtools/bin/../lib/gcc/arm-atollic-eabi/5.3.1/../../../../arm-atollic-eabi/lib/armv7-m\libc_nano.a(lib_a-sscanf.o) (__ssvfscanf_r)
c:/program files (x86)/atollic/truestudio for arm 7.1.0/armtools/bin/../lib/gcc/arm-atollic-eabi/5.3.1/../../../../arm-atollic-eabi/lib/armv7-m\libc_nano.a(lib_a-nano-vfprintf.o)
                              c:/program files (x86)/atollic/truestudio for arm 7.1.0/armtools/bin/../lib/gcc/arm-atollic-eabi/5.3.1/../../../../arm-atollic-eabi/lib/armv7-m\libc_nano.a(lib_a-printf.o) (_vfprintf_r)
c:/program files (x86)/atollic/truestudio for arm 7.1.0/armtools/bin/../lib/gcc/arm-atollic-eabi/5.3.1/../../../../arm-atollic-eabi/lib/armv7-m\libc_nano.a(lib_a-nano-vfprintf_i.o)
                              c:/program files (x86)/atollic/truestudio for arm 7.1.0/armtools/bin/../lib/gcc/arm-atollic-eabi/5.3.1/../../../../arm-atollic-eabi/lib/armv7-m\libc_nano.a(lib_a-nano-svfprintf.o) (_printf_i)
c:/program files (x86)/atollic/truestudio for arm 7.1.0/armtools/bin/../lib/gcc/arm-atollic-eabi/5.3.1/../../../../arm-atollic-eabi/lib/armv7-m\libc_nano.a(lib_a-nano-vfscanf_i.o)
                              c:/program files (x86)/atollic/truestudio for arm 7.1.0/armtools/bin/../lib/gcc/arm-atollic-eabi/5.3.1/../../../../arm-atollic-eabi/lib/armv7-m\libc_nano.a(lib_a-nano-svfscanf.o) (_scanf_chars)
c:/program files (x86)/atollic/truestudio for arm 7.1.0/armtools/bin/../lib/gcc/arm-atollic-eabi/5.3.1/../../../../arm-atollic-eabi/lib/armv7-m\libc_nano.a(lib_a-readr.o)
                              c:/program files (x86)/atollic/truestudio for arm 7.1.0/armtools/bin/../lib/gcc/arm-atollic-eabi/5.3.1/../../../../arm-atollic-eabi/lib/armv7-m\libc_nano.a(lib_a-stdio.o) (_read_r)
c:/program files (x86)/atollic/truestudio for arm 7.1.0/armtools/bin/../lib/gcc/arm-atollic-eabi/5.3.1/../../../../arm-atollic-eabi/lib/armv7-m\libc_nano.a(lib_a-reent.o)
                              c:/program files (x86)/atollic/truestudio for arm 7.1.0/armtools/bin/../lib/gcc/arm-atollic-eabi/5.3.1/../../../../arm-atollic-eabi/lib/armv7-m\libc_nano.a(lib_a-sbrkr.o) (errno)
c:/program files (x86)/atollic/truestudio for arm 7.1.0/armtools/bin/../lib/gcc/arm-atollic-eabi/5.3.1/../../../../arm-atollic-eabi/lib/armv7-m\libc_nano.a(lib_a-sccl.o)
                              c:/program files (x86)/atollic/truestudio for arm 7.1.0/armtools/bin/../lib/gcc/arm-atollic-eabi/5.3.1/../../../../arm-atollic-eabi/lib/armv7-m\libc_nano.a(lib_a-nano-svfscanf.o) (__sccl)
c:/program files (x86)/atollic/truestudio for arm 7.1.0/armtools/bin/../lib/gcc/arm-atollic-eabi/5.3.1/../../../../arm-atollic-eabi/lib/armv7-m\libc_nano.a(lib_a-strcpy.o)
                              c:/program files (x86)/atollic/truestudio for arm 7.1.0/armtools/bin/../lib/gcc/arm-atollic-eabi/5.3.1/../../../../arm-atollic-eabi/lib/armv7-m\libc_nano.a(lib_a-tzset_r.o) (strcpy)
c:/program files (x86)/atollic/truestudio for arm 7.1.0/armtools/bin/../lib/gcc/arm-atollic-eabi/5.3.1/../../../../arm-atollic-eabi/lib/armv7-m\libc_nano.a(lib_a-strncmp.o)
                              c:/program files (x86)/atollic/truestudio for arm 7.1.0/armtools/bin/../lib/gcc/arm-atollic-eabi/5.3.1/../../../../arm-atollic-eabi/lib/armv7-m\libc_nano.a(lib_a-getenv_r.o) (strncmp)
c:/program files (x86)/atollic/truestudio for arm 7.1.0/armtools/bin/../lib/gcc/arm-atollic-eabi/5.3.1/../../../../arm-atollic-eabi/lib/armv7-m\libc_nano.a(lib_a-strtol.o)
                              c:/program files (x86)/atollic/truestudio for arm 7.1.0/armtools/bin/../lib/gcc/arm-atollic-eabi/5.3.1/../../../../arm-atollic-eabi/lib/armv7-m\libc_nano.a(lib_a-nano-vfscanf_i.o) (_strtol_r)
c:/program files (x86)/atollic/truestudio for arm 7.1.0/armtools/bin/../lib/gcc/arm-atollic-eabi/5.3.1/../../../../arm-atollic-eabi/lib/armv7-m\libc_nano.a(lib_a-strtoul.o)
                              c:/program files (x86)/atollic/truestudio for arm 7.1.0/armtools/bin/../lib/gcc/arm-atollic-eabi/5.3.1/../../../../arm-atollic-eabi/lib/armv7-m\libc_nano.a(lib_a-nano-vfscanf_i.o) (_strtoul_r)
c:/program files (x86)/atollic/truestudio for arm 7.1.0/armtools/bin/../lib/gcc/arm-atollic-eabi/5.3.1/../../../../arm-atollic-eabi/lib/armv7-m\libc_nano.a(lib_a-ungetc.o)
                              c:/program files (x86)/atollic/truestudio for arm 7.1.0/armtools/bin/../lib/gcc/arm-atollic-eabi/5.3.1/../../../../arm-atollic-eabi/lib/armv7-m\libc_nano.a(lib_a-nano-svfscanf.o) (__submore)
c:/program files (x86)/atollic/truestudio for arm 7.1.0/armtools/bin/../lib/gcc/arm-atollic-eabi/5.3.1/../../../../arm-atollic-eabi/lib/armv7-m\libc_nano.a(lib_a-ctype_.o)
                              c:/program files (x86)/atollic/truestudio for arm 7.1.0/armtools/bin/../lib/gcc/arm-atollic-eabi/5.3.1/../../../../arm-atollic-eabi/lib/armv7-m\libc_nano.a(lib_a-nano-svfscanf.o) (__ctype_ptr__)
c:/program files (x86)/atollic/truestudio for arm 7.1.0/armtools/bin/../lib/gcc/arm-atollic-eabi/5.3.1/../../../../arm-atollic-eabi/lib/armv7-m\libc_nano.a(lib_a-environ.o)
                              c:/program files (x86)/atollic/truestudio for arm 7.1.0/armtools/bin/../lib/gcc/arm-atollic-eabi/5.3.1/../../../../arm-atollic-eabi/lib/armv7-m\libc_nano.a(lib_a-getenv_r.o) (environ)
c:/program files (x86)/atollic/truestudio for arm 7.1.0/armtools/bin/../lib/gcc/arm-atollic-eabi/5.3.1/../../../../arm-atollic-eabi/lib/armv7-m\libc_nano.a(lib_a-envlock.o)
                              c:/program files (x86)/atollic/truestudio for arm 7.1.0/armtools/bin/../lib/gcc/arm-atollic-eabi/5.3.1/../../../../arm-atollic-eabi/lib/armv7-m\libc_nano.a(lib_a-getenv_r.o) (__env_lock)
c:/program files (x86)/atollic/truestudio for arm 7.1.0/armtools/bin/../lib/gcc/arm-atollic-eabi/5.3.1/../../../../arm-atollic-eabi/lib/armv7-m\libc_nano.a(lib_a-fstatr.o)
                              c:/program files (x86)/atollic/truestudio for arm 7.1.0/armtools/bin/../lib/gcc/arm-atollic-eabi/5.3.1/../../../../arm-atollic-eabi/lib/armv7-m\libc_nano.a(lib_a-makebuf.o) (_fstat_r)
c:/program files (x86)/atollic/truestudio for arm 7.1.0/armtools/bin/../lib/gcc/arm-atollic-eabi/5.3.1/../../../../arm-atollic-eabi/lib/armv7-m\libc_nano.a(lib_a-fvwrite.o)
                              c:/program files (x86)/atollic/truestudio for arm 7.1.0/armtools/bin/../lib/gcc/arm-atollic-eabi/5.3.1/../../../../arm-atollic-eabi/lib/armv7-m\libc_nano.a(lib_a-nano-vfprintf.o) (__sfvwrite_r)
c:/program files (x86)/atollic/truestudio for arm 7.1.0/armtools/bin/../lib/gcc/arm-atollic-eabi/5.3.1/../../../../arm-atollic-eabi/lib/armv7-m\libc_nano.a(lib_a-isattyr.o)
                              c:/program files (x86)/atollic/truestudio for arm 7.1.0/armtools/bin/../lib/gcc/arm-atollic-eabi/5.3.1/../../../../arm-atollic-eabi/lib/armv7-m\libc_nano.a(lib_a-makebuf.o) (_isatty_r)
c:/program files (x86)/atollic/truestudio for arm 7.1.0/armtools/bin/../lib/gcc/arm-atollic-eabi/5.3.1/../../../../arm-atollic-eabi/lib/armv7-m\libc_nano.a(lib_a-memchr-stub.o)
                              c:/program files (x86)/atollic/truestudio for arm 7.1.0/armtools/bin/../lib/gcc/arm-atollic-eabi/5.3.1/../../../../arm-atollic-eabi/lib/armv7-m\libc_nano.a(lib_a-nano-svfprintf.o) (memchr)
c:/program files (x86)/atollic/truestudio for arm 7.1.0/armtools/bin/../lib/gcc/arm-atollic-eabi/5.3.1/../../../../arm-atollic-eabi/lib/armv7-m\libc_nano.a(lib_a-nano-msizer.o)
                              c:/program files (x86)/atollic/truestudio for arm 7.1.0/armtools/bin/../lib/gcc/arm-atollic-eabi/5.3.1/../../../../arm-atollic-eabi/lib/armv7-m\libc_nano.a(lib_a-nano-reallocr.o) (_malloc_usable_size_r)
c:/program files (x86)/atollic/truestudio for arm 7.1.0/armtools/bin/../lib/gcc/arm-atollic-eabi/5.3.1/armv7-m\libgcc.a(_arm_addsubdf3.o)
                              dlms\src\bytebuffer.o (__aeabi_dsub)
c:/program files (x86)/atollic/truestudio for arm 7.1.0/armtools/bin/../lib/gcc/arm-atollic-eabi/5.3.1/armv7-m\libgcc.a(_arm_muldivdf3.o)
                              dlms\src\gxset.o (__aeabi_dmul)
c:/program files (x86)/atollic/truestudio for arm 7.1.0/armtools/bin/../lib/gcc/arm-atollic-eabi/5.3.1/armv7-m\libgcc.a(_arm_cmpdf2.o)
                              dlms\src\bytebuffer.o (__aeabi_dcmpeq)
c:/program files (x86)/atollic/truestudio for arm 7.1.0/armtools/bin/../lib/gcc/arm-atollic-eabi/5.3.1/armv7-m\libgcc.a(_arm_fixdfsi.o)
                              dlms\src\bitarray.o (__aeabi_d2iz)
c:/program files (x86)/atollic/truestudio for arm 7.1.0/armtools/bin/../lib/gcc/arm-atollic-eabi/5.3.1/armv7-m\libgcc.a(_arm_fixunsdfsi.o)
                              dlms\src\bitarray.o (__aeabi_d2uiz)
c:/program files (x86)/atollic/truestudio for arm 7.1.0/armtools/bin/../lib/gcc/arm-atollic-eabi/5.3.1/armv7-m\libgcc.a(_arm_fixsfsi.o)
                              dlms\src\variant.o (__aeabi_f2iz)
c:/program files (x86)/atollic/truestudio for arm 7.1.0/armtools/bin/../lib/gcc/arm-atollic-eabi/5.3.1/armv7-m\libgcc.a(_aeabi_ldivmod.o)
                              dlms\src\helpers.o (__aeabi_ldivmod)
c:/program files (x86)/atollic/truestudio for arm 7.1.0/armtools/bin/../lib/gcc/arm-atollic-eabi/5.3.1/armv7-m\libgcc.a(_udivmoddi4.o)
                              c:/program files (x86)/atollic/truestudio for arm 7.1.0/armtools/bin/../lib/gcc/arm-atollic-eabi/5.3.1/armv7-m\libgcc.a(_aeabi_ldivmod.o) (__udivmoddi4)
c:/program files (x86)/atollic/truestudio for arm 7.1.0/armtools/bin/../lib/gcc/arm-atollic-eabi/5.3.1/armv7-m\libgcc.a(_dvmd_tls.o)
                              c:/program files (x86)/atollic/truestudio for arm 7.1.0/armtools/bin/../lib/gcc/arm-atollic-eabi/5.3.1/armv7-m\libgcc.a(_aeabi_ldivmod.o) (__aeabi_ldiv0)
c:/program files (x86)/atollic/truestudio for arm 7.1.0/armtools/bin/../lib/gcc/arm-atollic-eabi/5.3.1/../../../../arm-atollic-eabi/lib/armv7-m\libnosys.a(close.o)
                              c:/program files (x86)/atollic/truestudio for arm 7.1.0/armtools/bin/../lib/gcc/arm-atollic-eabi/5.3.1/../../../../arm-atollic-eabi/lib/armv7-m\libc_nano.a(lib_a-closer.o) (_close)
c:/program files (x86)/atollic/truestudio for arm 7.1.0/armtools/bin/../lib/gcc/arm-atollic-eabi/5.3.1/../../../../arm-atollic-eabi/lib/armv7-m\libnosys.a(fstat.o)
                              c:/program files (x86)/atollic/truestudio for arm 7.1.0/armtools/bin/../lib/gcc/arm-atollic-eabi/5.3.1/../../../../arm-atollic-eabi/lib/armv7-m\libc_nano.a(lib_a-fstatr.o) (_fstat)
c:/program files (x86)/atollic/truestudio for arm 7.1.0/armtools/bin/../lib/gcc/arm-atollic-eabi/5.3.1/../../../../arm-atollic-eabi/lib/armv7-m\libnosys.a(isatty.o)
                              c:/program files (x86)/atollic/truestudio for arm 7.1.0/armtools/bin/../lib/gcc/arm-atollic-eabi/5.3.1/../../../../arm-atollic-eabi/lib/armv7-m\libc_nano.a(lib_a-isattyr.o) (_isatty)
c:/program files (x86)/atollic/truestudio for arm 7.1.0/armtools/bin/../lib/gcc/arm-atollic-eabi/5.3.1/../../../../arm-atollic-eabi/lib/armv7-m\libnosys.a(lseek.o)
                              c:/program files (x86)/atollic/truestudio for arm 7.1.0/armtools/bin/../lib/gcc/arm-atollic-eabi/5.3.1/../../../../arm-atollic-eabi/lib/armv7-m\libc_nano.a(lib_a-lseekr.o) (_lseek)
c:/program files (x86)/atollic/truestudio for arm 7.1.0/armtools/bin/../lib/gcc/arm-atollic-eabi/5.3.1/../../../../arm-atollic-eabi/lib/armv7-m\libnosys.a(read.o)
                              c:/program files (x86)/atollic/truestudio for arm 7.1.0/armtools/bin/../lib/gcc/arm-atollic-eabi/5.3.1/../../../../arm-atollic-eabi/lib/armv7-m\libc_nano.a(lib_a-readr.o) (_read)
c:/program files (x86)/atollic/truestudio for arm 7.1.0/armtools/bin/../lib/gcc/arm-atollic-eabi/5.3.1/../../../../arm-atollic-eabi/lib/armv7-m\libnosys.a(sbrk.o)
                              c:/program files (x86)/atollic/truestudio for arm 7.1.0/armtools/bin/../lib/gcc/arm-atollic-eabi/5.3.1/../../../../arm-atollic-eabi/lib/armv7-m\libc_nano.a(lib_a-sbrkr.o) (_sbrk)
c:/program files (x86)/atollic/truestudio for arm 7.1.0/armtools/bin/../lib/gcc/arm-atollic-eabi/5.3.1/../../../../arm-atollic-eabi/lib/armv7-m\libnosys.a(write.o)
                              c:/program files (x86)/atollic/truestudio for arm 7.1.0/armtools/bin/../lib/gcc/arm-atollic-eabi/5.3.1/../../../../arm-atollic-eabi/lib/armv7-m\libc_nano.a(lib_a-writer.o) (_write)

Allocating common symbols
Common symbol       size              file

req                 0x8               modbus\modbus.o
pduAttributes       0x14              dlms\src\dlms.o
errno               0x4               c:/program files (x86)/atollic/truestudio for arm 7.1.0/armtools/bin/../lib/gcc/arm-atollic-eabi/5.3.1/../../../../arm-atollic-eabi/lib/armv7-m\libc_nano.a(lib_a-reent.o)
settings            0x140             src\main.o
bit                 0x4               dlms\src\helpers.o
UART3Status         0x4               UART\SRC\uart.o
usart1_status       0x4               modbus\modbus.o
reply               0xc               src\main.o
UART3Buffer         0x40              UART\SRC\uart.o
usart1_buffer       0x80              modbus\modbus.o

Discarded input sections

 .text          0x00000000        0x0 c:/program files (x86)/atollic/truestudio for arm 7.1.0/armtools/bin/../lib/gcc/arm-atollic-eabi/5.3.1/armv7-m/crti.o
 .data          0x00000000        0x0 c:/program files (x86)/atollic/truestudio for arm 7.1.0/armtools/bin/../lib/gcc/arm-atollic-eabi/5.3.1/armv7-m/crti.o
 .bss           0x00000000        0x0 c:/program files (x86)/atollic/truestudio for arm 7.1.0/armtools/bin/../lib/gcc/arm-atollic-eabi/5.3.1/armv7-m/crti.o
 .data          0x00000000        0x4 c:/program files (x86)/atollic/truestudio for arm 7.1.0/armtools/bin/../lib/gcc/arm-atollic-eabi/5.3.1/armv7-m/crtbegin.o
 .text          0x00000000        0x0 Libraries\CMSIS\CM3\CoreSupport\core_cm3.o
 .data          0x00000000        0x0 Libraries\CMSIS\CM3\CoreSupport\core_cm3.o
 .bss           0x00000000        0x0 Libraries\CMSIS\CM3\CoreSupport\core_cm3.o
 .debug_info    0x00000000       0x64 Libraries\CMSIS\CM3\CoreSupport\core_cm3.o
 .debug_abbrev  0x00000000       0x26 Libraries\CMSIS\CM3\CoreSupport\core_cm3.o
 .debug_aranges
                0x00000000       0x18 Libraries\CMSIS\CM3\CoreSupport\core_cm3.o
 .debug_line    0x00000000       0x1d Libraries\CMSIS\CM3\CoreSupport\core_cm3.o
 .debug_str     0x00000000      0x18b Libraries\CMSIS\CM3\CoreSupport\core_cm3.o
 .comment       0x00000000       0x7f Libraries\CMSIS\CM3\CoreSupport\core_cm3.o
 .ARM.attributes
                0x00000000       0x33 Libraries\CMSIS\CM3\CoreSupport\core_cm3.o
 .text          0x00000000        0x0 UART\SRC\uart.o
 .data          0x00000000        0x0 UART\SRC\uart.o
 .bss           0x00000000        0x0 UART\SRC\uart.o
 .text          0x00000000        0x0 dlms\src\apdu.o
 .data          0x00000000        0x0 dlms\src\apdu.o
 .bss           0x00000000        0x0 dlms\src\apdu.o
 .text.apdu_getAuthenticationString
                0x00000000       0xf8 dlms\src\apdu.o
 .text.apdu_getInitiateRequest
                0x00000000      0x118 dlms\src\apdu.o
 .text.apdu_generateUserInformation
                0x00000000      0x14c dlms\src\apdu.o
 .text.apdu_generateAarq
                0x00000000       0x84 dlms\src\apdu.o
 .text          0x00000000        0x0 dlms\src\bitarray.o
 .data          0x00000000        0x0 dlms\src\bitarray.o
 .bss           0x00000000        0x0 dlms\src\bitarray.o
 .text.ba_get   0x00000000       0x38 dlms\src\bitarray.o
 .text          0x00000000        0x0 dlms\src\bytebuffer.o
 .data          0x00000000        0x0 dlms\src\bytebuffer.o
 .bss           0x00000000        0x0 dlms\src\bytebuffer.o
 .text.bb_getUInt128ByIndex
                0x00000000       0x70 dlms\src\bytebuffer.o
 .text.bb_toString
                0x00000000       0x40 dlms\src\bytebuffer.o
 .rodata        0x00000000        0x4 dlms\src\bytebuffer.o
 .text.bb_addDoubleAsString
                0x00000000       0x80 dlms\src\bytebuffer.o
 .text.bb_subArray
                0x00000000       0x30 dlms\src\bytebuffer.o
 .text.bb_indexOf
                0x00000000       0x54 dlms\src\bytebuffer.o
 .text          0x00000000        0x0 dlms\src\ciphering.o
 .data          0x00000000        0x0 dlms\src\ciphering.o
 .bss           0x00000000        0x0 dlms\src\ciphering.o
 .text.cip_clear
                0x00000000       0x64 dlms\src\ciphering.o
 .rodata.WRAP_IV
                0x00000000        0x8 dlms\src\ciphering.o
 .text.cip_encryptKey
                0x00000000      0x19c dlms\src\ciphering.o
 .text.cip_decryptKey
                0x00000000      0x1b4 dlms\src\ciphering.o
 .text          0x00000000        0x0 dlms\src\client.o
 .data          0x00000000        0x0 dlms\src\client.o
 .bss           0x00000000        0x0 dlms\src\client.o
 .text.cl_snrmRequest
                0x00000000      0x1ac dlms\src\client.o
 .text.cl_parseUAResponse
                0x00000000       0x28 dlms\src\client.o
 .text.cl_aarqRequest
                0x00000000      0x120 dlms\src\client.o
 .text.cl_parseAAREResponse
                0x00000000       0x94 dlms\src\client.o
 .rodata        0x00000000        0x6 dlms\src\client.o
 .text.cl_getApplicationAssociationRequest
                0x00000000      0x130 dlms\src\client.o
 .text.cl_parseApplicationAssociationResponse
                0x00000000      0x18c dlms\src\client.o
 .text.cl_getObjectsRequest
                0x00000000       0x50 dlms\src\client.o
 .text.cl_parseLNObjects
                0x00000000      0x1f8 dlms\src\client.o
 .text.cl_parseSNObjects
                0x00000000      0x200 dlms\src\client.o
 .text.cl_parseObjects
                0x00000000       0x3c dlms\src\client.o
 .text.cl_readSN
                0x00000000       0xac dlms\src\client.o
 .text.cl_readLN
                0x00000000       0xdc dlms\src\client.o
 .text.cl_readList
                0x00000000      0x280 dlms\src\client.o
 .text.cl_read  0x00000000       0x68 dlms\src\client.o
 .text.cl_readRowsByEntry
                0x00000000       0x30 dlms\src\client.o
 .text.cl_readRowsByEntry2
                0x00000000      0x1d0 dlms\src\client.o
 .text.cl_readRowsByRange
                0x00000000      0x388 dlms\src\client.o
 .text.cl_getData
                0x00000000       0x24 dlms\src\client.o
 .text.cl_changeType
                0x00000000       0x24 dlms\src\client.o
 .text.cl_updateValue
                0x00000000       0x48 dlms\src\client.o
 .text.cl_updateValues
                0x00000000       0xdc dlms\src\client.o
 .text.cl_receiverReady
                0x00000000       0x24 dlms\src\client.o
 .text.cl_releaseRequest
                0x00000000      0x108 dlms\src\client.o
 .text.cl_disconnectRequest
                0x00000000       0xe0 dlms\src\client.o
 .text.cl_write
                0x00000000       0xa4 dlms\src\client.o
 .text.cl_writeLN
                0x00000000      0x100 dlms\src\client.o
 .text.cl_writeSN
                0x00000000       0xcc dlms\src\client.o
 .text.cl_method
                0x00000000       0x64 dlms\src\client.o
 .text.cl_methodLN
                0x00000000      0x120 dlms\src\client.o
 .text.cl_methodSN
                0x00000000      0x18c dlms\src\client.o
 .data.ln.8235  0x00000000        0x6 dlms\src\client.o
 .data.LN.8358  0x00000000        0x6 dlms\src\client.o
 .debug_info    0x00000000     0x2516 dlms\src\client.o
 .debug_abbrev  0x00000000      0x22c dlms\src\client.o
 .debug_aranges
                0x00000000      0x108 dlms\src\client.o
 .debug_ranges  0x00000000       0xf8 dlms\src\client.o
 .debug_line    0x00000000      0x747 dlms\src\client.o
 .debug_str     0x00000000     0x312b dlms\src\client.o
 .comment       0x00000000       0x7f dlms\src\client.o
 .debug_frame   0x00000000      0x484 dlms\src\client.o
 .ARM.attributes
                0x00000000       0x33 dlms\src\client.o
 .text          0x00000000        0x0 dlms\src\converters.o
 .data          0x00000000        0x0 dlms\src\converters.o
 .bss           0x00000000        0x0 dlms\src\converters.o
 .text.append   0x00000000       0x1c dlms\src\converters.o
 .rodata        0x00000000      0xfb1 dlms\src\converters.o
 .text.obj_typeToString
                0x00000000      0x4ac dlms\src\converters.o
 .text.obj_getUnitAsString
                0x00000000      0x5bc dlms\src\converters.o
 .text.obj_DataToString
                0x00000000       0x6c dlms\src\converters.o
 .text.obj_RegisterToString
                0x00000000       0xb8 dlms\src\converters.o
 .text.obj_clockToString
                0x00000000      0x17c dlms\src\converters.o
 .text.obj_ScriptTableToString
                0x00000000      0x1a4 dlms\src\converters.o
 .text.obj_specialDaysTableToString
                0x00000000      0x100 dlms\src\converters.o
 .text.obj_TcpUdpSetupToString
                0x00000000       0xfc dlms\src\converters.o
 .text.obj_mBusMasterPortSetupToString
                0x00000000       0x6c dlms\src\converters.o
 .text.obj_messageHandlerToString
                0x00000000       0x78 dlms\src\converters.o
 .text.obj_pushSetupToString
                0x00000000       0xe4 dlms\src\converters.o
 .text.obj_autoConnectToString
                0x00000000      0x1b8 dlms\src\converters.o
 .text.obj_seasonProfileToString
                0x00000000       0xb8 dlms\src\converters.o
 .text.obj_weekProfileToString
                0x00000000      0x114 dlms\src\converters.o
 .text.obj_dayProfileToString
                0x00000000      0x104 dlms\src\converters.o
 .text.obj_activityCalendarToString
                0x00000000      0x1a0 dlms\src\converters.o
 .text.obj_securitySetupToString
                0x00000000       0xdc dlms\src\converters.o
 .text.obj_hdlcSetupToString
                0x00000000      0x158 dlms\src\converters.o
 .text.obj_localPortSetupToString
                0x00000000      0x178 dlms\src\converters.o
 .text.obj_demandRegisterToString
                0x00000000      0x1ac dlms\src\converters.o
 .text.obj_registerActivationToString
                0x00000000      0x174 dlms\src\converters.o
 .text.actionItemToString
                0x00000000       0x34 dlms\src\converters.o
 .text.obj_registerMonitorToString
                0x00000000      0x1a8 dlms\src\converters.o
 .text.obj_actionScheduleToString
                0x00000000      0x128 dlms\src\converters.o
 .text.obj_sapAssignmentToString
                0x00000000       0xe0 dlms\src\converters.o
 .text.obj_autoAnswerToString
                0x00000000      0x180 dlms\src\converters.o
 .text.obj_ip4SetupToString
                0x00000000      0x264 dlms\src\converters.o
 .text.obj_mbusSlavePortSetupToString
                0x00000000       0xcc dlms\src\converters.o
 .text.obj_imageTransferToString
                0x00000000      0x1b4 dlms\src\converters.o
 .text.obj_disconnectControlToString
                0x00000000       0xb0 dlms\src\converters.o
 .text.obj_limiterToString
                0x00000000      0x258 dlms\src\converters.o
 .text.obj_mBusClientToString
                0x00000000      0x1e0 dlms\src\converters.o
 .text.obj_modemConfigurationToString
                0x00000000      0x190 dlms\src\converters.o
 .text.obj_macAddressSetupToString
                0x00000000       0x70 dlms\src\converters.o
 .text.qualityOfServiceToString
                0x00000000       0x7c dlms\src\converters.o
 .text.obj_GPRSSetupToString
                0x00000000       0xd4 dlms\src\converters.o
 .text.obj_extendedRegisterToString
                0x00000000      0x110 dlms\src\converters.o
 .text.obj_objectsToString
                0x00000000       0x94 dlms\src\converters.o
 .text.obj_rowsToString
                0x00000000       0xac dlms\src\converters.o
 .text.obj_applicationContextNameToString
                0x00000000       0xac dlms\src\converters.o
 .text.obj_xDLMSContextTypeToString
                0x00000000       0x7c dlms\src\converters.o
 .text.obj_authenticationMechanismNameToString
                0x00000000       0x94 dlms\src\converters.o
 .text.obj_associationLogicalNameToString
                0x00000000      0x230 dlms\src\converters.o
 .text.obj_associationShortNameToString
                0x00000000       0x9c dlms\src\converters.o
 .text.obj_pppSetupToString
                0x00000000      0x104 dlms\src\converters.o
 .text.obj_CaptureObjectsToString
                0x00000000       0x94 dlms\src\converters.o
 .text.obj_ProfileGenericToString
                0x00000000      0x14c dlms\src\converters.o
 .text.obj_accountToString
                0x00000000      0x278 dlms\src\converters.o
 .text.obj_creditToString
                0x00000000      0x180 dlms\src\converters.o
 .text.obj_chargeToString
                0x00000000      0x1ac dlms\src\converters.o
 .text.obj_tokenGatewayToString
                0x00000000       0x58 dlms\src\converters.o
 .text.obj_GsmDiagnosticToString
                0x00000000      0x234 dlms\src\converters.o
 .text.obj_CompactDataToString
                0x00000000      0x100 dlms\src\converters.o
 .text.obj_toString
                0x00000000      0x3e0 dlms\src\converters.o
 .text.err_toString
                0x00000000      0x618 dlms\src\converters.o
 .debug_info    0x00000000     0x3cf0 dlms\src\converters.o
 .debug_abbrev  0x00000000      0x251 dlms\src\converters.o
 .debug_aranges
                0x00000000      0x1d8 dlms\src\converters.o
 .debug_ranges  0x00000000      0x1c8 dlms\src\converters.o
 .debug_line    0x00000000      0xd55 dlms\src\converters.o
 .debug_str     0x00000000     0x451d dlms\src\converters.o
 .comment       0x00000000       0x7f dlms\src\converters.o
 .debug_frame   0x00000000      0x818 dlms\src\converters.o
 .ARM.attributes
                0x00000000       0x33 dlms\src\converters.o
 .text          0x00000000        0x0 dlms\src\cosem.o
 .data          0x00000000        0x0 dlms\src\cosem.o
 .bss           0x00000000        0x0 dlms\src\cosem.o
 .text.cosem_createObject2
                0x00000000       0x3c dlms\src\cosem.o
 .text.cosem_init
                0x00000000       0x34 dlms\src\cosem.o
 .text          0x00000000        0x0 dlms\src\datainfo.o
 .data          0x00000000        0x0 dlms\src\datainfo.o
 .bss           0x00000000        0x0 dlms\src\datainfo.o
 .text          0x00000000        0x0 dlms\src\date.o
 .data          0x00000000        0x0 dlms\src\date.o
 .bss           0x00000000        0x0 dlms\src\date.o
 .text.time_init3
                0x00000000       0x64 dlms\src\date.o
 .text.time_clearDate
                0x00000000       0x40 dlms\src\date.o
 .text.time_clearTime
                0x00000000       0x28 dlms\src\date.o
 .text.time_addDays
                0x00000000       0x20 dlms\src\date.o
 .text.time_addHours
                0x00000000       0x20 dlms\src\date.o
 .text.time_addMinutes
                0x00000000       0x20 dlms\src\date.o
 .text.time_addSeconds
                0x00000000       0x20 dlms\src\date.o
 .text.time_print
                0x00000000       0x4c dlms\src\date.o
 .text.time_toString2
                0x00000000       0x34 dlms\src\date.o
 .text.time_toUnixTime
                0x00000000       0x18 dlms\src\date.o
 .text          0x00000000        0x0 dlms\src\dlms.o
 .data          0x00000000        0x0 dlms\src\dlms.o
 .bss           0x00000000        0x0 dlms\src\dlms.o
 .rodata.HDLC_FRAME_START_END
                0x00000000        0x1 dlms\src\dlms.o
 .text.dlms_checkInit
                0x00000000       0x40 dlms\src\dlms.o
 .text.dlms_getMaxPduSize
                0x00000000       0x94 dlms\src\dlms.o
 .text.dlms_setData2
                0x00000000       0x38 dlms\src\dlms.o
 .text.dlms_receiverReady
                0x00000000      0x190 dlms\src\dlms.o
 .text.handleWriteResponse
                0x00000000       0x84 dlms\src\dlms.o
 .text.dlms_handlePush
                0x00000000      0x154 dlms\src\dlms.o
 .text.dlms_getLnMessages
                0x00000000      0x100 dlms\src\dlms.o
 .text.dlms_getSnMessages
                0x00000000      0x11c dlms\src\dlms.o
 .text          0x00000000        0x0 dlms\src\dlmsSettings.o
 .data          0x00000000        0x0 dlms\src\dlmsSettings.o
 .bss           0x00000000        0x0 dlms\src\dlmsSettings.o
 .rodata.SERVER_START_SENDER_FRAME_SEQUENCE
                0x00000000        0x1 dlms\src\dlmsSettings.o
 .rodata.SERVER_START_RECEIVER_FRAME_SEQUENCE
                0x00000000        0x1 dlms\src\dlmsSettings.o
 .rodata.CLIENT_START_SENDER_FRAME_SEQUENCE
                0x00000000        0x1 dlms\src\dlmsSettings.o
 .rodata.CLIENT_START_RCEIVER_FRAME_SEQUENCE
                0x00000000        0x1 dlms\src\dlmsSettings.o
 .text.cl_clear
                0x00000000       0xf8 dlms\src\dlmsSettings.o
 .text.svr_clear
                0x00000000       0x18 dlms\src\dlmsSettings.o
 .text          0x00000000        0x0 dlms\src\gxaes.o
 .data          0x00000000        0x0 dlms\src\gxaes.o
 .bss           0x00000000        0x0 dlms\src\gxaes.o
 .bss.Iv        0x00000000        0x4 dlms\src\gxaes.o
 .rodata.rsbox  0x00000000      0x100 dlms\src\gxaes.o
 .text.getSBoxInvert
                0x00000000       0x20 dlms\src\gxaes.o
 .text.InvMixColumns
                0x00000000      0x6ac dlms\src\gxaes.o
 .text.InvSubBytes
                0x00000000       0x60 dlms\src\gxaes.o
 .text.InvShiftRows
                0x00000000       0xb4 dlms\src\gxaes.o
 .text.InvCipher
                0x00000000       0x4c dlms\src\gxaes.o
 .text.gxaes_ecb_decrypt
                0x00000000       0x3c dlms\src\gxaes.o
 .text.XorWithIv
                0x00000000       0x48 dlms\src\gxaes.o
 .text.gxaes_cbc_encrypt
                0x00000000       0xa4 dlms\src\gxaes.o
 .text.gxaes_cbc_decrypt
                0x00000000       0xa4 dlms\src\gxaes.o
 .text          0x00000000        0x0 dlms\src\gxarray.o
 .data          0x00000000        0x0 dlms\src\gxarray.o
 .bss           0x00000000        0x0 dlms\src\gxarray.o
 .text          0x00000000        0x0 dlms\src\gxget.o
 .data          0x00000000        0x0 dlms\src\gxget.o
 .bss           0x00000000        0x0 dlms\src\gxget.o
 .text          0x00000000        0x0 dlms\src\gxinvoke.o
 .data          0x00000000        0x0 dlms\src\gxinvoke.o
 .bss           0x00000000        0x0 dlms\src\gxinvoke.o
 .text          0x00000000        0x0 dlms\src\gxkey.o
 .data          0x00000000        0x0 dlms\src\gxkey.o
 .bss           0x00000000        0x0 dlms\src\gxkey.o
 .text.key_init2
                0x00000000       0x2c dlms\src\gxkey.o
 .text          0x00000000        0x0 dlms\src\gxmd5.o
 .data          0x00000000        0x0 dlms\src\gxmd5.o
 .bss           0x00000000        0x0 dlms\src\gxmd5.o
 .text          0x00000000        0x0 dlms\src\gxobjects.o
 .data          0x00000000        0x0 dlms\src\gxobjects.o
 .bss           0x00000000        0x0 dlms\src\gxobjects.o
 .text.li_init  0x00000000       0x2c dlms\src\gxobjects.o
 .text.co_init  0x00000000       0x30 dlms\src\gxobjects.o
 .text.obj_getAttributeIndexToRead
                0x00000000      0x190 dlms\src\gxobjects.o
 .text.init_ProtectionParameter
                0x00000000       0x6c dlms\src\gxobjects.o
 .text.clear_ProtectionParameter
                0x00000000       0x6c dlms\src\gxobjects.o
 .text          0x00000000        0x0 dlms\src\gxset.o
 .data          0x00000000        0x0 dlms\src\gxset.o
 .bss           0x00000000        0x0 dlms\src\gxset.o
 .text          0x00000000        0x0 dlms\src\gxsha1.o
 .data          0x00000000        0x0 dlms\src\gxsha1.o
 .bss           0x00000000        0x0 dlms\src\gxsha1.o
 .text          0x00000000        0x0 dlms\src\gxsha256.o
 .data          0x00000000        0x0 dlms\src\gxsha256.o
 .bss           0x00000000        0x0 dlms\src\gxsha256.o
 .text          0x00000000        0x0 dlms\src\gxvalueeventargs.o
 .data          0x00000000        0x0 dlms\src\gxvalueeventargs.o
 .bss           0x00000000        0x0 dlms\src\gxvalueeventargs.o
 .text.vec_capacity
                0x00000000       0x50 dlms\src\gxvalueeventargs.o
 .text.vec_get  0x00000000       0x48 dlms\src\gxvalueeventargs.o
 .text          0x00000000        0x0 dlms\src\helpers.o
 .data          0x00000000        0x0 dlms\src\helpers.o
 .bss           0x00000000        0x0 dlms\src\helpers.o
 .text.hlp_isBigEndian
                0x00000000       0x24 dlms\src\helpers.o
 .text.hlp_getErrorMessage
                0x00000000      0x5ec dlms\src\helpers.o
 .text.hlp_getObjectCount
                0x00000000       0x98 dlms\src\helpers.o
 .text.hlp_trace
                0x00000000       0x4c dlms\src\helpers.o
 .text.hlp_parseLogicalName
                0x00000000       0xf4 dlms\src\helpers.o
 .text.hlp_setLogicalName2
                0x00000000       0x40 dlms\src\helpers.o
 .text.hlp_printLogicalName
                0x00000000       0x4c dlms\src\helpers.o
 .text.hlp_appendLogicalName
                0x00000000       0x38 dlms\src\helpers.o
 .text.hlp_getLogicalNameToString
                0x00000000      0x124 dlms\src\helpers.o
 .text.hlp_setLogicalName
                0x00000000      0x100 dlms\src\helpers.o
 .text.hlp_replace
                0x00000000       0x50 dlms\src\helpers.o
 .text.hlp_getDataTypeSize
                0x00000000      0x100 dlms\src\helpers.o
 .text          0x00000000        0x0 dlms\src\message.o
 .data          0x00000000        0x0 dlms\src\message.o
 .bss           0x00000000        0x0 dlms\src\message.o
 .text.mes_init
                0x00000000       0x30 dlms\src\message.o
 .text.mes_push
                0x00000000       0x78 dlms\src\message.o
 .text.mes_clear
                0x00000000       0x78 dlms\src\message.o
 .debug_info    0x00000000      0x199 dlms\src\message.o
 .debug_abbrev  0x00000000       0xbb dlms\src\message.o
 .debug_aranges
                0x00000000       0x30 dlms\src\message.o
 .debug_ranges  0x00000000       0x20 dlms\src\message.o
 .debug_line    0x00000000       0xc2 dlms\src\message.o
 .debug_str     0x00000000      0x1df dlms\src\message.o
 .comment       0x00000000       0x7f dlms\src\message.o
 .debug_frame   0x00000000       0x7c dlms\src\message.o
 .ARM.attributes
                0x00000000       0x33 dlms\src\message.o
 .text          0x00000000        0x0 dlms\src\notify.o
 .data          0x00000000        0x0 dlms\src\notify.o
 .bss           0x00000000        0x0 dlms\src\notify.o
 .text.notify_getData
                0x00000000       0x24 dlms\src\notify.o
 .text.notify_addData
                0x00000000       0x88 dlms\src\notify.o
 .text.notify_generateDataNotificationMessages2
                0x00000000       0x84 dlms\src\notify.o
 .text.notify_generateDataNotificationMessages
                0x00000000       0xb8 dlms\src\notify.o
 .text.notify_generatePushSetupMessages
                0x00000000       0xd0 dlms\src\notify.o
 .text.notify_parsePush
                0x00000000      0x1f0 dlms\src\notify.o
 .debug_info    0x00000000     0x15cb dlms\src\notify.o
 .debug_abbrev  0x00000000      0x1c9 dlms\src\notify.o
 .debug_aranges
                0x00000000       0x48 dlms\src\notify.o
 .debug_ranges  0x00000000       0x38 dlms\src\notify.o
 .debug_line    0x00000000      0x29d dlms\src\notify.o
 .debug_str     0x00000000     0x27ad dlms\src\notify.o
 .comment       0x00000000       0x7f dlms\src\notify.o
 .debug_frame   0x00000000       0xec dlms\src\notify.o
 .ARM.attributes
                0x00000000       0x33 dlms\src\notify.o
 .text          0x00000000        0x0 dlms\src\objectarray.o
 .data          0x00000000        0x0 dlms\src\objectarray.o
 .bss           0x00000000        0x0 dlms\src\objectarray.o
 .text.oa_verify
                0x00000000       0x50 dlms\src\objectarray.o
 .text.oa_clear2
                0x00000000       0x80 dlms\src\objectarray.o
 .text.oa_getObjects
                0x00000000       0x8c dlms\src\objectarray.o
 .text.oa_getObjects2
                0x00000000       0xb4 dlms\src\objectarray.o
 .text          0x00000000        0x0 dlms\src\parameters.o
 .data          0x00000000        0x0 dlms\src\parameters.o
 .bss           0x00000000        0x0 dlms\src\parameters.o
 .text          0x00000000        0x0 dlms\src\replydata.o
 .data          0x00000000        0x0 dlms\src\replydata.o
 .bss           0x00000000        0x0 dlms\src\replydata.o
 .text.reply_isMoreData
                0x00000000       0x20 dlms\src\replydata.o
 .text.reply_clear
                0x00000000       0x18 dlms\src\replydata.o
 .text          0x00000000        0x0 dlms\src\server.o
 .data          0x00000000        0x0 dlms\src\server.o
 .bss           0x00000000        0x0 dlms\src\server.o
 .text.svr_handleRequest
                0x00000000       0x30 dlms\src\server.o
 .text.handleInactivityTimeout
                0x00000000       0xc0 dlms\src\server.o
 .text.svr_run  0x00000000       0x18 dlms\src\server.o
 .text          0x00000000        0x0 dlms\src\variant.o
 .data          0x00000000        0x0 dlms\src\variant.o
 .bss           0x00000000        0x0 dlms\src\variant.o
 .text.var_setUInt64
                0x00000000       0x2c dlms\src\variant.o
 .text.var_setInt64
                0x00000000       0x2c dlms\src\variant.o
 .text.var_setFloat
                0x00000000       0x28 dlms\src\variant.o
 .text.var_getUInt8
                0x00000000       0x30 dlms\src\variant.o
 .text.var_getUInt16
                0x00000000       0x30 dlms\src\variant.o
 .text.var_getUInt32
                0x00000000       0x30 dlms\src\variant.o
 .text.var_getUInt64
                0x00000000       0x40 dlms\src\variant.o
 .text.var_getInt8
                0x00000000       0x34 dlms\src\variant.o
 .text.var_getInt16
                0x00000000       0x30 dlms\src\variant.o
 .text.var_getInt32
                0x00000000       0x34 dlms\src\variant.o
 .text.var_getInt64
                0x00000000       0x40 dlms\src\variant.o
 .text.var_addByteArray
                0x00000000       0x34 dlms\src\variant.o
 .text.var_attachArray
                0x00000000       0x50 dlms\src\variant.o
 .text.var_attachStructure
                0x00000000       0x50 dlms\src\variant.o
 .text.va_copyArray
                0x00000000       0x7c dlms\src\variant.o
 .text.va_toString
                0x00000000       0x74 dlms\src\variant.o
 .text.var_setDateAsOctetString
                0x00000000       0x68 dlms\src\variant.o
 .text.var_getDateTime
                0x00000000       0x90 dlms\src\variant.o
 .text.var_print
                0x00000000       0x6c dlms\src\variant.o
 .text.va_print
                0x00000000       0x60 dlms\src\variant.o
 .text          0x00000000        0x0 energymeter\LT_energymeter.o
 .data          0x00000000        0x0 energymeter\LT_energymeter.o
 .bss           0x00000000        0x0 energymeter\LT_energymeter.o
 .text.read     0x00000000       0x74 energymeter\LT_energymeter.o
 .text.readActPower
                0x00000000       0x68 energymeter\LT_energymeter.o
 .text.readReActPower
                0x00000000       0x68 energymeter\LT_energymeter.o
 .text.readAppaPower
                0x00000000       0x68 energymeter\LT_energymeter.o
 .text.readPowerFactor
                0x00000000       0x68 energymeter\LT_energymeter.o
 .text.readPhaseSequence
                0x00000000       0x60 energymeter\LT_energymeter.o
 COMMON         0x00000000        0x0 energymeter\LT_energymeter.o
 .text          0x00000000        0x0 modbus\modbus.o
 .data          0x00000000        0x0 modbus\modbus.o
 .bss           0x00000000        0x0 modbus\modbus.o
 .text          0x00000000        0x0 src\main.o
 .data          0x00000000        0x0 src\main.o
 .bss           0x00000000        0x0 src\main.o
 .text.svr_preGet
                0x00000000       0x44 src\main.o
 .text.svr_postGet
                0x00000000       0x14 src\main.o
 .text.svr_getDataType
                0x00000000       0x14 src\main.o
 .text          0x00000000       0x14 src\startup_LPC17xx.o
 .data          0x00000000        0x0 src\startup_LPC17xx.o
 .bss           0x00000000        0x0 src\startup_LPC17xx.o
 .text          0x00000000        0x0 src\system_LPC17xx.o
 .data          0x00000000        0x0 src\system_LPC17xx.o
 .bss           0x00000000        0x0 src\system_LPC17xx.o
 .text.SystemCoreClockUpdate
                0x00000000      0x164 src\system_LPC17xx.o
 .text          0x00000000        0x0 systick_timer\systick_timer.o
 .data          0x00000000        0x0 systick_timer\systick_timer.o
 .bss           0x00000000        0x0 systick_timer\systick_timer.o
 .text.get_systick_count
                0x00000000       0x14 systick_timer\systick_timer.o
 .text.init_systick
                0x00000000       0x3c systick_timer\systick_timer.o
 .text          0x00000000        0x0 c:/program files (x86)/atollic/truestudio for arm 7.1.0/armtools/bin/../lib/gcc/arm-atollic-eabi/5.3.1/../../../../arm-atollic-eabi/lib/armv7-m\libc_nano.a(lib_a-calloc.o)
 .data          0x00000000        0x0 c:/program files (x86)/atollic/truestudio for arm 7.1.0/armtools/bin/../lib/gcc/arm-atollic-eabi/5.3.1/../../../../arm-atollic-eabi/lib/armv7-m\libc_nano.a(lib_a-calloc.o)
 .bss           0x00000000        0x0 c:/program files (x86)/atollic/truestudio for arm 7.1.0/armtools/bin/../lib/gcc/arm-atollic-eabi/5.3.1/../../../../arm-atollic-eabi/lib/armv7-m\libc_nano.a(lib_a-calloc.o)
 .text          0x00000000        0x0 c:/program files (x86)/atollic/truestudio for arm 7.1.0/armtools/bin/../lib/gcc/arm-atollic-eabi/5.3.1/../../../../arm-atollic-eabi/lib/armv7-m\libc_nano.a(lib_a-impure.o)
 .data          0x00000000        0x0 c:/program files (x86)/atollic/truestudio for arm 7.1.0/armtools/bin/../lib/gcc/arm-atollic-eabi/5.3.1/../../../../arm-atollic-eabi/lib/armv7-m\libc_nano.a(lib_a-impure.o)
 .bss           0x00000000        0x0 c:/program files (x86)/atollic/truestudio for arm 7.1.0/armtools/bin/../lib/gcc/arm-atollic-eabi/5.3.1/../../../../arm-atollic-eabi/lib/armv7-m\libc_nano.a(lib_a-impure.o)
 .text          0x00000000        0x0 c:/program files (x86)/atollic/truestudio for arm 7.1.0/armtools/bin/../lib/gcc/arm-atollic-eabi/5.3.1/../../../../arm-atollic-eabi/lib/armv7-m\libc_nano.a(lib_a-init.o)
 .data          0x00000000        0x0 c:/program files (x86)/atollic/truestudio for arm 7.1.0/armtools/bin/../lib/gcc/arm-atollic-eabi/5.3.1/../../../../arm-atollic-eabi/lib/armv7-m\libc_nano.a(lib_a-init.o)
 .bss           0x00000000        0x0 c:/program files (x86)/atollic/truestudio for arm 7.1.0/armtools/bin/../lib/gcc/arm-atollic-eabi/5.3.1/../../../../arm-atollic-eabi/lib/armv7-m\libc_nano.a(lib_a-init.o)
 .text          0x00000000        0x0 c:/program files (x86)/atollic/truestudio for arm 7.1.0/armtools/bin/../lib/gcc/arm-atollic-eabi/5.3.1/../../../../arm-atollic-eabi/lib/armv7-m\libc_nano.a(lib_a-lcltime.o)
 .data          0x00000000        0x0 c:/program files (x86)/atollic/truestudio for arm 7.1.0/armtools/bin/../lib/gcc/arm-atollic-eabi/5.3.1/../../../../arm-atollic-eabi/lib/armv7-m\libc_nano.a(lib_a-lcltime.o)
 .bss           0x00000000        0x0 c:/program files (x86)/atollic/truestudio for arm 7.1.0/armtools/bin/../lib/gcc/arm-atollic-eabi/5.3.1/../../../../arm-atollic-eabi/lib/armv7-m\libc_nano.a(lib_a-lcltime.o)
 .text          0x00000000        0x0 c:/program files (x86)/atollic/truestudio for arm 7.1.0/armtools/bin/../lib/gcc/arm-atollic-eabi/5.3.1/../../../../arm-atollic-eabi/lib/armv7-m\libc_nano.a(lib_a-lcltime_r.o)
 .data          0x00000000        0x0 c:/program files (x86)/atollic/truestudio for arm 7.1.0/armtools/bin/../lib/gcc/arm-atollic-eabi/5.3.1/../../../../arm-atollic-eabi/lib/armv7-m\libc_nano.a(lib_a-lcltime_r.o)
 .bss           0x00000000        0x0 c:/program files (x86)/atollic/truestudio for arm 7.1.0/armtools/bin/../lib/gcc/arm-atollic-eabi/5.3.1/../../../../arm-atollic-eabi/lib/armv7-m\libc_nano.a(lib_a-lcltime_r.o)
 .text          0x00000000        0x0 c:/program files (x86)/atollic/truestudio for arm 7.1.0/armtools/bin/../lib/gcc/arm-atollic-eabi/5.3.1/../../../../arm-atollic-eabi/lib/armv7-m\libc_nano.a(lib_a-malloc.o)
 .data          0x00000000        0x0 c:/program files (x86)/atollic/truestudio for arm 7.1.0/armtools/bin/../lib/gcc/arm-atollic-eabi/5.3.1/../../../../arm-atollic-eabi/lib/armv7-m\libc_nano.a(lib_a-malloc.o)
 .bss           0x00000000        0x0 c:/program files (x86)/atollic/truestudio for arm 7.1.0/armtools/bin/../lib/gcc/arm-atollic-eabi/5.3.1/../../../../arm-atollic-eabi/lib/armv7-m\libc_nano.a(lib_a-malloc.o)
 .text          0x00000000        0x0 c:/program files (x86)/atollic/truestudio for arm 7.1.0/armtools/bin/../lib/gcc/arm-atollic-eabi/5.3.1/../../../../arm-atollic-eabi/lib/armv7-m\libc_nano.a(lib_a-memcmp.o)
 .data          0x00000000        0x0 c:/program files (x86)/atollic/truestudio for arm 7.1.0/armtools/bin/../lib/gcc/arm-atollic-eabi/5.3.1/../../../../arm-atollic-eabi/lib/armv7-m\libc_nano.a(lib_a-memcmp.o)
 .bss           0x00000000        0x0 c:/program files (x86)/atollic/truestudio for arm 7.1.0/armtools/bin/../lib/gcc/arm-atollic-eabi/5.3.1/../../../../arm-atollic-eabi/lib/armv7-m\libc_nano.a(lib_a-memcmp.o)
 .text          0x00000000        0x0 c:/program files (x86)/atollic/truestudio for arm 7.1.0/armtools/bin/../lib/gcc/arm-atollic-eabi/5.3.1/../../../../arm-atollic-eabi/lib/armv7-m\libc_nano.a(lib_a-memcpy-stub.o)
 .data          0x00000000        0x0 c:/program files (x86)/atollic/truestudio for arm 7.1.0/armtools/bin/../lib/gcc/arm-atollic-eabi/5.3.1/../../../../arm-atollic-eabi/lib/armv7-m\libc_nano.a(lib_a-memcpy-stub.o)
 .bss           0x00000000        0x0 c:/program files (x86)/atollic/truestudio for arm 7.1.0/armtools/bin/../lib/gcc/arm-atollic-eabi/5.3.1/../../../../arm-atollic-eabi/lib/armv7-m\libc_nano.a(lib_a-memcpy-stub.o)
 .text          0x00000000        0x0 c:/program files (x86)/atollic/truestudio for arm 7.1.0/armtools/bin/../lib/gcc/arm-atollic-eabi/5.3.1/../../../../arm-atollic-eabi/lib/armv7-m\libc_nano.a(lib_a-memmove.o)
 .data          0x00000000        0x0 c:/program files (x86)/atollic/truestudio for arm 7.1.0/armtools/bin/../lib/gcc/arm-atollic-eabi/5.3.1/../../../../arm-atollic-eabi/lib/armv7-m\libc_nano.a(lib_a-memmove.o)
 .bss           0x00000000        0x0 c:/program files (x86)/atollic/truestudio for arm 7.1.0/armtools/bin/../lib/gcc/arm-atollic-eabi/5.3.1/../../../../arm-atollic-eabi/lib/armv7-m\libc_nano.a(lib_a-memmove.o)
 .text          0x00000000        0x0 c:/program files (x86)/atollic/truestudio for arm 7.1.0/armtools/bin/../lib/gcc/arm-atollic-eabi/5.3.1/../../../../arm-atollic-eabi/lib/armv7-m\libc_nano.a(lib_a-memset.o)
 .data          0x00000000        0x0 c:/program files (x86)/atollic/truestudio for arm 7.1.0/armtools/bin/../lib/gcc/arm-atollic-eabi/5.3.1/../../../../arm-atollic-eabi/lib/armv7-m\libc_nano.a(lib_a-memset.o)
 .bss           0x00000000        0x0 c:/program files (x86)/atollic/truestudio for arm 7.1.0/armtools/bin/../lib/gcc/arm-atollic-eabi/5.3.1/../../../../arm-atollic-eabi/lib/armv7-m\libc_nano.a(lib_a-memset.o)
 .text          0x00000000        0x0 c:/program files (x86)/atollic/truestudio for arm 7.1.0/armtools/bin/../lib/gcc/arm-atollic-eabi/5.3.1/../../../../arm-atollic-eabi/lib/armv7-m\libc_nano.a(lib_a-mktime.o)
 .data          0x00000000        0x0 c:/program files (x86)/atollic/truestudio for arm 7.1.0/armtools/bin/../lib/gcc/arm-atollic-eabi/5.3.1/../../../../arm-atollic-eabi/lib/armv7-m\libc_nano.a(lib_a-mktime.o)
 .bss           0x00000000        0x0 c:/program files (x86)/atollic/truestudio for arm 7.1.0/armtools/bin/../lib/gcc/arm-atollic-eabi/5.3.1/../../../../arm-atollic-eabi/lib/armv7-m\libc_nano.a(lib_a-mktime.o)
 .text          0x00000000        0x0 c:/program files (x86)/atollic/truestudio for arm 7.1.0/armtools/bin/../lib/gcc/arm-atollic-eabi/5.3.1/../../../../arm-atollic-eabi/lib/armv7-m\libc_nano.a(lib_a-month_lengths.o)
 .data          0x00000000        0x0 c:/program files (x86)/atollic/truestudio for arm 7.1.0/armtools/bin/../lib/gcc/arm-atollic-eabi/5.3.1/../../../../arm-atollic-eabi/lib/armv7-m\libc_nano.a(lib_a-month_lengths.o)
 .bss           0x00000000        0x0 c:/program files (x86)/atollic/truestudio for arm 7.1.0/armtools/bin/../lib/gcc/arm-atollic-eabi/5.3.1/../../../../arm-atollic-eabi/lib/armv7-m\libc_nano.a(lib_a-month_lengths.o)
 .text          0x00000000        0x0 c:/program files (x86)/atollic/truestudio for arm 7.1.0/armtools/bin/../lib/gcc/arm-atollic-eabi/5.3.1/../../../../arm-atollic-eabi/lib/armv7-m\libc_nano.a(lib_a-nano-callocr.o)
 .data          0x00000000        0x0 c:/program files (x86)/atollic/truestudio for arm 7.1.0/armtools/bin/../lib/gcc/arm-atollic-eabi/5.3.1/../../../../arm-atollic-eabi/lib/armv7-m\libc_nano.a(lib_a-nano-callocr.o)
 .bss           0x00000000        0x0 c:/program files (x86)/atollic/truestudio for arm 7.1.0/armtools/bin/../lib/gcc/arm-atollic-eabi/5.3.1/../../../../arm-atollic-eabi/lib/armv7-m\libc_nano.a(lib_a-nano-callocr.o)
 .text          0x00000000        0x0 c:/program files (x86)/atollic/truestudio for arm 7.1.0/armtools/bin/../lib/gcc/arm-atollic-eabi/5.3.1/../../../../arm-atollic-eabi/lib/armv7-m\libc_nano.a(lib_a-nano-freer.o)
 .data          0x00000000        0x0 c:/program files (x86)/atollic/truestudio for arm 7.1.0/armtools/bin/../lib/gcc/arm-atollic-eabi/5.3.1/../../../../arm-atollic-eabi/lib/armv7-m\libc_nano.a(lib_a-nano-freer.o)
 .bss           0x00000000        0x0 c:/program files (x86)/atollic/truestudio for arm 7.1.0/armtools/bin/../lib/gcc/arm-atollic-eabi/5.3.1/../../../../arm-atollic-eabi/lib/armv7-m\libc_nano.a(lib_a-nano-freer.o)
 .text          0x00000000        0x0 c:/program files (x86)/atollic/truestudio for arm 7.1.0/armtools/bin/../lib/gcc/arm-atollic-eabi/5.3.1/../../../../arm-atollic-eabi/lib/armv7-m\libc_nano.a(lib_a-nano-mallocr.o)
 .data          0x00000000        0x0 c:/program files (x86)/atollic/truestudio for arm 7.1.0/armtools/bin/../lib/gcc/arm-atollic-eabi/5.3.1/../../../../arm-atollic-eabi/lib/armv7-m\libc_nano.a(lib_a-nano-mallocr.o)
 .bss           0x00000000        0x0 c:/program files (x86)/atollic/truestudio for arm 7.1.0/armtools/bin/../lib/gcc/arm-atollic-eabi/5.3.1/../../../../arm-atollic-eabi/lib/armv7-m\libc_nano.a(lib_a-nano-mallocr.o)
 .text          0x00000000        0x0 c:/program files (x86)/atollic/truestudio for arm 7.1.0/armtools/bin/../lib/gcc/arm-atollic-eabi/5.3.1/../../../../arm-atollic-eabi/lib/armv7-m\libc_nano.a(lib_a-printf.o)
 .data          0x00000000        0x0 c:/program files (x86)/atollic/truestudio for arm 7.1.0/armtools/bin/../lib/gcc/arm-atollic-eabi/5.3.1/../../../../arm-atollic-eabi/lib/armv7-m\libc_nano.a(lib_a-printf.o)
 .bss           0x00000000        0x0 c:/program files (x86)/atollic/truestudio for arm 7.1.0/armtools/bin/../lib/gcc/arm-atollic-eabi/5.3.1/../../../../arm-atollic-eabi/lib/armv7-m\libc_nano.a(lib_a-printf.o)
 .text._printf_r
                0x00000000       0x28 c:/program files (x86)/atollic/truestudio for arm 7.1.0/armtools/bin/../lib/gcc/arm-atollic-eabi/5.3.1/../../../../arm-atollic-eabi/lib/armv7-m\libc_nano.a(lib_a-printf.o)
 .text.printf   0x00000000       0x30 c:/program files (x86)/atollic/truestudio for arm 7.1.0/armtools/bin/../lib/gcc/arm-atollic-eabi/5.3.1/../../../../arm-atollic-eabi/lib/armv7-m\libc_nano.a(lib_a-printf.o)
 .debug_frame   0x00000000       0x74 c:/program files (x86)/atollic/truestudio for arm 7.1.0/armtools/bin/../lib/gcc/arm-atollic-eabi/5.3.1/../../../../arm-atollic-eabi/lib/armv7-m\libc_nano.a(lib_a-printf.o)
 .ARM.attributes
                0x00000000       0x2d c:/program files (x86)/atollic/truestudio for arm 7.1.0/armtools/bin/../lib/gcc/arm-atollic-eabi/5.3.1/../../../../arm-atollic-eabi/lib/armv7-m\libc_nano.a(lib_a-printf.o)
 .text          0x00000000        0x0 c:/program files (x86)/atollic/truestudio for arm 7.1.0/armtools/bin/../lib/gcc/arm-atollic-eabi/5.3.1/../../../../arm-atollic-eabi/lib/armv7-m\libc_nano.a(lib_a-puts.o)
 .data          0x00000000        0x0 c:/program files (x86)/atollic/truestudio for arm 7.1.0/armtools/bin/../lib/gcc/arm-atollic-eabi/5.3.1/../../../../arm-atollic-eabi/lib/armv7-m\libc_nano.a(lib_a-puts.o)
 .bss           0x00000000        0x0 c:/program files (x86)/atollic/truestudio for arm 7.1.0/armtools/bin/../lib/gcc/arm-atollic-eabi/5.3.1/../../../../arm-atollic-eabi/lib/armv7-m\libc_nano.a(lib_a-puts.o)
 .text          0x00000000        0x0 c:/program files (x86)/atollic/truestudio for arm 7.1.0/armtools/bin/../lib/gcc/arm-atollic-eabi/5.3.1/../../../../arm-atollic-eabi/lib/armv7-m\libc_nano.a(lib_a-realloc.o)
 .data          0x00000000        0x0 c:/program files (x86)/atollic/truestudio for arm 7.1.0/armtools/bin/../lib/gcc/arm-atollic-eabi/5.3.1/../../../../arm-atollic-eabi/lib/armv7-m\libc_nano.a(lib_a-realloc.o)
 .bss           0x00000000        0x0 c:/program files (x86)/atollic/truestudio for arm 7.1.0/armtools/bin/../lib/gcc/arm-atollic-eabi/5.3.1/../../../../arm-atollic-eabi/lib/armv7-m\libc_nano.a(lib_a-realloc.o)
 .text          0x00000000        0x0 c:/program files (x86)/atollic/truestudio for arm 7.1.0/armtools/bin/../lib/gcc/arm-atollic-eabi/5.3.1/../../../../arm-atollic-eabi/lib/armv7-m\libc_nano.a(lib_a-sbrkr.o)
 .data          0x00000000        0x0 c:/program files (x86)/atollic/truestudio for arm 7.1.0/armtools/bin/../lib/gcc/arm-atollic-eabi/5.3.1/../../../../arm-atollic-eabi/lib/armv7-m\libc_nano.a(lib_a-sbrkr.o)
 .bss           0x00000000        0x0 c:/program files (x86)/atollic/truestudio for arm 7.1.0/armtools/bin/../lib/gcc/arm-atollic-eabi/5.3.1/../../../../arm-atollic-eabi/lib/armv7-m\libc_nano.a(lib_a-sbrkr.o)
 .text          0x00000000        0x0 c:/program files (x86)/atollic/truestudio for arm 7.1.0/armtools/bin/../lib/gcc/arm-atollic-eabi/5.3.1/../../../../arm-atollic-eabi/lib/armv7-m\libc_nano.a(lib_a-sprintf.o)
 .data          0x00000000        0x0 c:/program files (x86)/atollic/truestudio for arm 7.1.0/armtools/bin/../lib/gcc/arm-atollic-eabi/5.3.1/../../../../arm-atollic-eabi/lib/armv7-m\libc_nano.a(lib_a-sprintf.o)
 .bss           0x00000000        0x0 c:/program files (x86)/atollic/truestudio for arm 7.1.0/armtools/bin/../lib/gcc/arm-atollic-eabi/5.3.1/../../../../arm-atollic-eabi/lib/armv7-m\libc_nano.a(lib_a-sprintf.o)
 .text._sprintf_r
                0x00000000       0x40 c:/program files (x86)/atollic/truestudio for arm 7.1.0/armtools/bin/../lib/gcc/arm-atollic-eabi/5.3.1/../../../../arm-atollic-eabi/lib/armv7-m\libc_nano.a(lib_a-sprintf.o)
 .text          0x00000000        0x0 c:/program files (x86)/atollic/truestudio for arm 7.1.0/armtools/bin/../lib/gcc/arm-atollic-eabi/5.3.1/../../../../arm-atollic-eabi/lib/armv7-m\libc_nano.a(lib_a-sscanf.o)
 .data          0x00000000        0x0 c:/program files (x86)/atollic/truestudio for arm 7.1.0/armtools/bin/../lib/gcc/arm-atollic-eabi/5.3.1/../../../../arm-atollic-eabi/lib/armv7-m\libc_nano.a(lib_a-sscanf.o)
 .bss           0x00000000        0x0 c:/program files (x86)/atollic/truestudio for arm 7.1.0/armtools/bin/../lib/gcc/arm-atollic-eabi/5.3.1/../../../../arm-atollic-eabi/lib/armv7-m\libc_nano.a(lib_a-sscanf.o)
 .text._sscanf_r
                0x00000000       0x54 c:/program files (x86)/atollic/truestudio for arm 7.1.0/armtools/bin/../lib/gcc/arm-atollic-eabi/5.3.1/../../../../arm-atollic-eabi/lib/armv7-m\libc_nano.a(lib_a-sscanf.o)
 .text          0x00000000        0x0 c:/program files (x86)/atollic/truestudio for arm 7.1.0/armtools/bin/../lib/gcc/arm-atollic-eabi/5.3.1/../../../../arm-atollic-eabi/lib/armv7-m\libc_nano.a(lib_a-stdio.o)
 .data          0x00000000        0x0 c:/program files (x86)/atollic/truestudio for arm 7.1.0/armtools/bin/../lib/gcc/arm-atollic-eabi/5.3.1/../../../../arm-atollic-eabi/lib/armv7-m\libc_nano.a(lib_a-stdio.o)
 .bss           0x00000000        0x0 c:/program files (x86)/atollic/truestudio for arm 7.1.0/armtools/bin/../lib/gcc/arm-atollic-eabi/5.3.1/../../../../arm-atollic-eabi/lib/armv7-m\libc_nano.a(lib_a-stdio.o)
 .text          0x00000000        0x0 c:/program files (x86)/atollic/truestudio for arm 7.1.0/armtools/bin/../lib/gcc/arm-atollic-eabi/5.3.1/../../../../arm-atollic-eabi/lib/armv7-m\libc_nano.a(lib_a-strcat.o)
 .data          0x00000000        0x0 c:/program files (x86)/atollic/truestudio for arm 7.1.0/armtools/bin/../lib/gcc/arm-atollic-eabi/5.3.1/../../../../arm-atollic-eabi/lib/armv7-m\libc_nano.a(lib_a-strcat.o)
 .bss           0x00000000        0x0 c:/program files (x86)/atollic/truestudio for arm 7.1.0/armtools/bin/../lib/gcc/arm-atollic-eabi/5.3.1/../../../../arm-atollic-eabi/lib/armv7-m\libc_nano.a(lib_a-strcat.o)
 .text.strcat   0x00000000       0x1e c:/program files (x86)/atollic/truestudio for arm 7.1.0/armtools/bin/../lib/gcc/arm-atollic-eabi/5.3.1/../../../../arm-atollic-eabi/lib/armv7-m\libc_nano.a(lib_a-strcat.o)
 .debug_frame   0x00000000       0x28 c:/program files (x86)/atollic/truestudio for arm 7.1.0/armtools/bin/../lib/gcc/arm-atollic-eabi/5.3.1/../../../../arm-atollic-eabi/lib/armv7-m\libc_nano.a(lib_a-strcat.o)
 .ARM.attributes
                0x00000000       0x2d c:/program files (x86)/atollic/truestudio for arm 7.1.0/armtools/bin/../lib/gcc/arm-atollic-eabi/5.3.1/../../../../arm-atollic-eabi/lib/armv7-m\libc_nano.a(lib_a-strcat.o)
 .text          0x00000000        0x0 c:/program files (x86)/atollic/truestudio for arm 7.1.0/armtools/bin/../lib/gcc/arm-atollic-eabi/5.3.1/../../../../arm-atollic-eabi/lib/armv7-m\libc_nano.a(lib_a-strchr.o)
 .data          0x00000000        0x0 c:/program files (x86)/atollic/truestudio for arm 7.1.0/armtools/bin/../lib/gcc/arm-atollic-eabi/5.3.1/../../../../arm-atollic-eabi/lib/armv7-m\libc_nano.a(lib_a-strchr.o)
 .bss           0x00000000        0x0 c:/program files (x86)/atollic/truestudio for arm 7.1.0/armtools/bin/../lib/gcc/arm-atollic-eabi/5.3.1/../../../../arm-atollic-eabi/lib/armv7-m\libc_nano.a(lib_a-strchr.o)
 .text.strchr   0x00000000       0x1c c:/program files (x86)/atollic/truestudio for arm 7.1.0/armtools/bin/../lib/gcc/arm-atollic-eabi/5.3.1/../../../../arm-atollic-eabi/lib/armv7-m\libc_nano.a(lib_a-strchr.o)
 .debug_frame   0x00000000       0x20 c:/program files (x86)/atollic/truestudio for arm 7.1.0/armtools/bin/../lib/gcc/arm-atollic-eabi/5.3.1/../../../../arm-atollic-eabi/lib/armv7-m\libc_nano.a(lib_a-strchr.o)
 .ARM.attributes
                0x00000000       0x2d c:/program files (x86)/atollic/truestudio for arm 7.1.0/armtools/bin/../lib/gcc/arm-atollic-eabi/5.3.1/../../../../arm-atollic-eabi/lib/armv7-m\libc_nano.a(lib_a-strchr.o)
 .data          0x00000000        0x0 c:/program files (x86)/atollic/truestudio for arm 7.1.0/armtools/bin/../lib/gcc/arm-atollic-eabi/5.3.1/../../../../arm-atollic-eabi/lib/armv7-m\libc_nano.a(lib_a-strcmp.o)
 .bss           0x00000000        0x0 c:/program files (x86)/atollic/truestudio for arm 7.1.0/armtools/bin/../lib/gcc/arm-atollic-eabi/5.3.1/../../../../arm-atollic-eabi/lib/armv7-m\libc_nano.a(lib_a-strcmp.o)
 .data          0x00000000        0x0 c:/program files (x86)/atollic/truestudio for arm 7.1.0/armtools/bin/../lib/gcc/arm-atollic-eabi/5.3.1/../../../../arm-atollic-eabi/lib/armv7-m\libc_nano.a(lib_a-strlen.o)
 .bss           0x00000000        0x0 c:/program files (x86)/atollic/truestudio for arm 7.1.0/armtools/bin/../lib/gcc/arm-atollic-eabi/5.3.1/../../../../arm-atollic-eabi/lib/armv7-m\libc_nano.a(lib_a-strlen.o)
 .text          0x00000000        0x0 c:/program files (x86)/atollic/truestudio for arm 7.1.0/armtools/bin/../lib/gcc/arm-atollic-eabi/5.3.1/../../../../arm-atollic-eabi/lib/armv7-m\libc_nano.a(lib_a-tzcalc_limits.o)
 .data          0x00000000        0x0 c:/program files (x86)/atollic/truestudio for arm 7.1.0/armtools/bin/../lib/gcc/arm-atollic-eabi/5.3.1/../../../../arm-atollic-eabi/lib/armv7-m\libc_nano.a(lib_a-tzcalc_limits.o)
 .bss           0x00000000        0x0 c:/program files (x86)/atollic/truestudio for arm 7.1.0/armtools/bin/../lib/gcc/arm-atollic-eabi/5.3.1/../../../../arm-atollic-eabi/lib/armv7-m\libc_nano.a(lib_a-tzcalc_limits.o)
 .text          0x00000000        0x0 c:/program files (x86)/atollic/truestudio for arm 7.1.0/armtools/bin/../lib/gcc/arm-atollic-eabi/5.3.1/../../../../arm-atollic-eabi/lib/armv7-m\libc_nano.a(lib_a-tzlock.o)
 .data          0x00000000        0x0 c:/program files (x86)/atollic/truestudio for arm 7.1.0/armtools/bin/../lib/gcc/arm-atollic-eabi/5.3.1/../../../../arm-atollic-eabi/lib/armv7-m\libc_nano.a(lib_a-tzlock.o)
 .bss           0x00000000        0x0 c:/program files (x86)/atollic/truestudio for arm 7.1.0/armtools/bin/../lib/gcc/arm-atollic-eabi/5.3.1/../../../../arm-atollic-eabi/lib/armv7-m\libc_nano.a(lib_a-tzlock.o)
 .text          0x00000000        0x0 c:/program files (x86)/atollic/truestudio for arm 7.1.0/armtools/bin/../lib/gcc/arm-atollic-eabi/5.3.1/../../../../arm-atollic-eabi/lib/armv7-m\libc_nano.a(lib_a-tzset.o)
 .data          0x00000000        0x0 c:/program files (x86)/atollic/truestudio for arm 7.1.0/armtools/bin/../lib/gcc/arm-atollic-eabi/5.3.1/../../../../arm-atollic-eabi/lib/armv7-m\libc_nano.a(lib_a-tzset.o)
 .bss           0x00000000        0x0 c:/program files (x86)/atollic/truestudio for arm 7.1.0/armtools/bin/../lib/gcc/arm-atollic-eabi/5.3.1/../../../../arm-atollic-eabi/lib/armv7-m\libc_nano.a(lib_a-tzset.o)
 .text.tzset    0x00000000       0x1c c:/program files (x86)/atollic/truestudio for arm 7.1.0/armtools/bin/../lib/gcc/arm-atollic-eabi/5.3.1/../../../../arm-atollic-eabi/lib/armv7-m\libc_nano.a(lib_a-tzset.o)
 .text          0x00000000        0x0 c:/program files (x86)/atollic/truestudio for arm 7.1.0/armtools/bin/../lib/gcc/arm-atollic-eabi/5.3.1/../../../../arm-atollic-eabi/lib/armv7-m\libc_nano.a(lib_a-tzset_r.o)
 .data          0x00000000        0x0 c:/program files (x86)/atollic/truestudio for arm 7.1.0/armtools/bin/../lib/gcc/arm-atollic-eabi/5.3.1/../../../../arm-atollic-eabi/lib/armv7-m\libc_nano.a(lib_a-tzset_r.o)
 .bss           0x00000000        0x0 c:/program files (x86)/atollic/truestudio for arm 7.1.0/armtools/bin/../lib/gcc/arm-atollic-eabi/5.3.1/../../../../arm-atollic-eabi/lib/armv7-m\libc_nano.a(lib_a-tzset_r.o)
 .text._tzset_r
                0x00000000       0x16 c:/program files (x86)/atollic/truestudio for arm 7.1.0/armtools/bin/../lib/gcc/arm-atollic-eabi/5.3.1/../../../../arm-atollic-eabi/lib/armv7-m\libc_nano.a(lib_a-tzset_r.o)
 .text          0x00000000        0x0 c:/program files (x86)/atollic/truestudio for arm 7.1.0/armtools/bin/../lib/gcc/arm-atollic-eabi/5.3.1/../../../../arm-atollic-eabi/lib/armv7-m\libc_nano.a(lib_a-tzvars.o)
 .data          0x00000000        0x0 c:/program files (x86)/atollic/truestudio for arm 7.1.0/armtools/bin/../lib/gcc/arm-atollic-eabi/5.3.1/../../../../arm-atollic-eabi/lib/armv7-m\libc_nano.a(lib_a-tzvars.o)
 .bss           0x00000000        0x0 c:/program files (x86)/atollic/truestudio for arm 7.1.0/armtools/bin/../lib/gcc/arm-atollic-eabi/5.3.1/../../../../arm-atollic-eabi/lib/armv7-m\libc_nano.a(lib_a-tzvars.o)
 .text          0x00000000        0x0 c:/program files (x86)/atollic/truestudio for arm 7.1.0/armtools/bin/../lib/gcc/arm-atollic-eabi/5.3.1/../../../../arm-atollic-eabi/lib/armv7-m\libc_nano.a(lib_a-wbuf.o)
 .data          0x00000000        0x0 c:/program files (x86)/atollic/truestudio for arm 7.1.0/armtools/bin/../lib/gcc/arm-atollic-eabi/5.3.1/../../../../arm-atollic-eabi/lib/armv7-m\libc_nano.a(lib_a-wbuf.o)
 .bss           0x00000000        0x0 c:/program files (x86)/atollic/truestudio for arm 7.1.0/armtools/bin/../lib/gcc/arm-atollic-eabi/5.3.1/../../../../arm-atollic-eabi/lib/armv7-m\libc_nano.a(lib_a-wbuf.o)
 .text.__swbuf  0x00000000       0x10 c:/program files (x86)/atollic/truestudio for arm 7.1.0/armtools/bin/../lib/gcc/arm-atollic-eabi/5.3.1/../../../../arm-atollic-eabi/lib/armv7-m\libc_nano.a(lib_a-wbuf.o)
 .text          0x00000000        0x0 c:/program files (x86)/atollic/truestudio for arm 7.1.0/armtools/bin/../lib/gcc/arm-atollic-eabi/5.3.1/../../../../arm-atollic-eabi/lib/armv7-m\libc_nano.a(lib_a-writer.o)
 .data          0x00000000        0x0 c:/program files (x86)/atollic/truestudio for arm 7.1.0/armtools/bin/../lib/gcc/arm-atollic-eabi/5.3.1/../../../../arm-atollic-eabi/lib/armv7-m\libc_nano.a(lib_a-writer.o)
 .bss           0x00000000        0x0 c:/program files (x86)/atollic/truestudio for arm 7.1.0/armtools/bin/../lib/gcc/arm-atollic-eabi/5.3.1/../../../../arm-atollic-eabi/lib/armv7-m\libc_nano.a(lib_a-writer.o)
 .text          0x00000000        0x0 c:/program files (x86)/atollic/truestudio for arm 7.1.0/armtools/bin/../lib/gcc/arm-atollic-eabi/5.3.1/../../../../arm-atollic-eabi/lib/armv7-m\libc_nano.a(lib_a-wsetup.o)
 .data          0x00000000        0x0 c:/program files (x86)/atollic/truestudio for arm 7.1.0/armtools/bin/../lib/gcc/arm-atollic-eabi/5.3.1/../../../../arm-atollic-eabi/lib/armv7-m\libc_nano.a(lib_a-wsetup.o)
 .bss           0x00000000        0x0 c:/program files (x86)/atollic/truestudio for arm 7.1.0/armtools/bin/../lib/gcc/arm-atollic-eabi/5.3.1/../../../../arm-atollic-eabi/lib/armv7-m\libc_nano.a(lib_a-wsetup.o)
 .text          0x00000000        0x0 c:/program files (x86)/atollic/truestudio for arm 7.1.0/armtools/bin/../lib/gcc/arm-atollic-eabi/5.3.1/../../../../arm-atollic-eabi/lib/armv7-m\libc_nano.a(lib_a-closer.o)
 .data          0x00000000        0x0 c:/program files (x86)/atollic/truestudio for arm 7.1.0/armtools/bin/../lib/gcc/arm-atollic-eabi/5.3.1/../../../../arm-atollic-eabi/lib/armv7-m\libc_nano.a(lib_a-closer.o)
 .bss           0x00000000        0x0 c:/program files (x86)/atollic/truestudio for arm 7.1.0/armtools/bin/../lib/gcc/arm-atollic-eabi/5.3.1/../../../../arm-atollic-eabi/lib/armv7-m\libc_nano.a(lib_a-closer.o)
 .text          0x00000000        0x0 c:/program files (x86)/atollic/truestudio for arm 7.1.0/armtools/bin/../lib/gcc/arm-atollic-eabi/5.3.1/../../../../arm-atollic-eabi/lib/armv7-m\libc_nano.a(lib_a-div.o)
 .data          0x00000000        0x0 c:/program files (x86)/atollic/truestudio for arm 7.1.0/armtools/bin/../lib/gcc/arm-atollic-eabi/5.3.1/../../../../arm-atollic-eabi/lib/armv7-m\libc_nano.a(lib_a-div.o)
 .bss           0x00000000        0x0 c:/program files (x86)/atollic/truestudio for arm 7.1.0/armtools/bin/../lib/gcc/arm-atollic-eabi/5.3.1/../../../../arm-atollic-eabi/lib/armv7-m\libc_nano.a(lib_a-div.o)
 .text          0x00000000        0x0 c:/program files (x86)/atollic/truestudio for arm 7.1.0/armtools/bin/../lib/gcc/arm-atollic-eabi/5.3.1/../../../../arm-atollic-eabi/lib/armv7-m\libc_nano.a(lib_a-fflush.o)
 .data          0x00000000        0x0 c:/program files (x86)/atollic/truestudio for arm 7.1.0/armtools/bin/../lib/gcc/arm-atollic-eabi/5.3.1/../../../../arm-atollic-eabi/lib/armv7-m\libc_nano.a(lib_a-fflush.o)
 .bss           0x00000000        0x0 c:/program files (x86)/atollic/truestudio for arm 7.1.0/armtools/bin/../lib/gcc/arm-atollic-eabi/5.3.1/../../../../arm-atollic-eabi/lib/armv7-m\libc_nano.a(lib_a-fflush.o)
 .text.fflush   0x00000000       0x24 c:/program files (x86)/atollic/truestudio for arm 7.1.0/armtools/bin/../lib/gcc/arm-atollic-eabi/5.3.1/../../../../arm-atollic-eabi/lib/armv7-m\libc_nano.a(lib_a-fflush.o)
 .text          0x00000000        0x0 c:/program files (x86)/atollic/truestudio for arm 7.1.0/armtools/bin/../lib/gcc/arm-atollic-eabi/5.3.1/../../../../arm-atollic-eabi/lib/armv7-m\libc_nano.a(lib_a-findfp.o)
 .data          0x00000000        0x0 c:/program files (x86)/atollic/truestudio for arm 7.1.0/armtools/bin/../lib/gcc/arm-atollic-eabi/5.3.1/../../../../arm-atollic-eabi/lib/armv7-m\libc_nano.a(lib_a-findfp.o)
 .bss           0x00000000        0x0 c:/program files (x86)/atollic/truestudio for arm 7.1.0/armtools/bin/../lib/gcc/arm-atollic-eabi/5.3.1/../../../../arm-atollic-eabi/lib/armv7-m\libc_nano.a(lib_a-findfp.o)
 .text.__fp_unlock
                0x00000000        0x4 c:/program files (x86)/atollic/truestudio for arm 7.1.0/armtools/bin/../lib/gcc/arm-atollic-eabi/5.3.1/../../../../arm-atollic-eabi/lib/armv7-m\libc_nano.a(lib_a-findfp.o)
 .text.__fp_lock
                0x00000000        0x4 c:/program files (x86)/atollic/truestudio for arm 7.1.0/armtools/bin/../lib/gcc/arm-atollic-eabi/5.3.1/../../../../arm-atollic-eabi/lib/armv7-m\libc_nano.a(lib_a-findfp.o)
 .text._cleanup
                0x00000000        0xc c:/program files (x86)/atollic/truestudio for arm 7.1.0/armtools/bin/../lib/gcc/arm-atollic-eabi/5.3.1/../../../../arm-atollic-eabi/lib/armv7-m\libc_nano.a(lib_a-findfp.o)
 .text.__sfp_lock_acquire
                0x00000000        0x2 c:/program files (x86)/atollic/truestudio for arm 7.1.0/armtools/bin/../lib/gcc/arm-atollic-eabi/5.3.1/../../../../arm-atollic-eabi/lib/armv7-m\libc_nano.a(lib_a-findfp.o)
 .text.__sfp_lock_release
                0x00000000        0x2 c:/program files (x86)/atollic/truestudio for arm 7.1.0/armtools/bin/../lib/gcc/arm-atollic-eabi/5.3.1/../../../../arm-atollic-eabi/lib/armv7-m\libc_nano.a(lib_a-findfp.o)
 .text.__sinit_lock_acquire
                0x00000000        0x2 c:/program files (x86)/atollic/truestudio for arm 7.1.0/armtools/bin/../lib/gcc/arm-atollic-eabi/5.3.1/../../../../arm-atollic-eabi/lib/armv7-m\libc_nano.a(lib_a-findfp.o)
 .text.__sinit_lock_release
                0x00000000        0x2 c:/program files (x86)/atollic/truestudio for arm 7.1.0/armtools/bin/../lib/gcc/arm-atollic-eabi/5.3.1/../../../../arm-atollic-eabi/lib/armv7-m\libc_nano.a(lib_a-findfp.o)
 .text.__fp_lock_all
                0x00000000       0x14 c:/program files (x86)/atollic/truestudio for arm 7.1.0/armtools/bin/../lib/gcc/arm-atollic-eabi/5.3.1/../../../../arm-atollic-eabi/lib/armv7-m\libc_nano.a(lib_a-findfp.o)
 .text.__fp_unlock_all
                0x00000000       0x14 c:/program files (x86)/atollic/truestudio for arm 7.1.0/armtools/bin/../lib/gcc/arm-atollic-eabi/5.3.1/../../../../arm-atollic-eabi/lib/armv7-m\libc_nano.a(lib_a-findfp.o)
 .text          0x00000000        0x0 c:/program files (x86)/atollic/truestudio for arm 7.1.0/armtools/bin/../lib/gcc/arm-atollic-eabi/5.3.1/../../../../arm-atollic-eabi/lib/armv7-m\libc_nano.a(lib_a-fwalk.o)
 .data          0x00000000        0x0 c:/program files (x86)/atollic/truestudio for arm 7.1.0/armtools/bin/../lib/gcc/arm-atollic-eabi/5.3.1/../../../../arm-atollic-eabi/lib/armv7-m\libc_nano.a(lib_a-fwalk.o)
 .bss           0x00000000        0x0 c:/program files (x86)/atollic/truestudio for arm 7.1.0/armtools/bin/../lib/gcc/arm-atollic-eabi/5.3.1/../../../../arm-atollic-eabi/lib/armv7-m\libc_nano.a(lib_a-fwalk.o)
 .text._fwalk   0x00000000       0x38 c:/program files (x86)/atollic/truestudio for arm 7.1.0/armtools/bin/../lib/gcc/arm-atollic-eabi/5.3.1/../../../../arm-atollic-eabi/lib/armv7-m\libc_nano.a(lib_a-fwalk.o)
 .text          0x00000000        0x0 c:/program files (x86)/atollic/truestudio for arm 7.1.0/armtools/bin/../lib/gcc/arm-atollic-eabi/5.3.1/../../../../arm-atollic-eabi/lib/armv7-m\libc_nano.a(lib_a-getenv_r.o)
 .data          0x00000000        0x0 c:/program files (x86)/atollic/truestudio for arm 7.1.0/armtools/bin/../lib/gcc/arm-atollic-eabi/5.3.1/../../../../arm-atollic-eabi/lib/armv7-m\libc_nano.a(lib_a-getenv_r.o)
 .bss           0x00000000        0x0 c:/program files (x86)/atollic/truestudio for arm 7.1.0/armtools/bin/../lib/gcc/arm-atollic-eabi/5.3.1/../../../../arm-atollic-eabi/lib/armv7-m\libc_nano.a(lib_a-getenv_r.o)
 .text          0x00000000        0x0 c:/program files (x86)/atollic/truestudio for arm 7.1.0/armtools/bin/../lib/gcc/arm-atollic-eabi/5.3.1/../../../../arm-atollic-eabi/lib/armv7-m\libc_nano.a(lib_a-gettzinfo.o)
 .data          0x00000000        0x0 c:/program files (x86)/atollic/truestudio for arm 7.1.0/armtools/bin/../lib/gcc/arm-atollic-eabi/5.3.1/../../../../arm-atollic-eabi/lib/armv7-m\libc_nano.a(lib_a-gettzinfo.o)
 .bss           0x00000000        0x0 c:/program files (x86)/atollic/truestudio for arm 7.1.0/armtools/bin/../lib/gcc/arm-atollic-eabi/5.3.1/../../../../arm-atollic-eabi/lib/armv7-m\libc_nano.a(lib_a-gettzinfo.o)
 .text          0x00000000        0x0 c:/program files (x86)/atollic/truestudio for arm 7.1.0/armtools/bin/../lib/gcc/arm-atollic-eabi/5.3.1/../../../../arm-atollic-eabi/lib/armv7-m\libc_nano.a(lib_a-gmtime_r.o)
 .data          0x00000000        0x0 c:/program files (x86)/atollic/truestudio for arm 7.1.0/armtools/bin/../lib/gcc/arm-atollic-eabi/5.3.1/../../../../arm-atollic-eabi/lib/armv7-m\libc_nano.a(lib_a-gmtime_r.o)
 .bss           0x00000000        0x0 c:/program files (x86)/atollic/truestudio for arm 7.1.0/armtools/bin/../lib/gcc/arm-atollic-eabi/5.3.1/../../../../arm-atollic-eabi/lib/armv7-m\libc_nano.a(lib_a-gmtime_r.o)
 .text          0x00000000        0x0 c:/program files (x86)/atollic/truestudio for arm 7.1.0/armtools/bin/../lib/gcc/arm-atollic-eabi/5.3.1/../../../../arm-atollic-eabi/lib/armv7-m\libc_nano.a(lib_a-lseekr.o)
 .data          0x00000000        0x0 c:/program files (x86)/atollic/truestudio for arm 7.1.0/armtools/bin/../lib/gcc/arm-atollic-eabi/5.3.1/../../../../arm-atollic-eabi/lib/armv7-m\libc_nano.a(lib_a-lseekr.o)
 .bss           0x00000000        0x0 c:/program files (x86)/atollic/truestudio for arm 7.1.0/armtools/bin/../lib/gcc/arm-atollic-eabi/5.3.1/../../../../arm-atollic-eabi/lib/armv7-m\libc_nano.a(lib_a-lseekr.o)
 .text          0x00000000        0x0 c:/program files (x86)/atollic/truestudio for arm 7.1.0/armtools/bin/../lib/gcc/arm-atollic-eabi/5.3.1/../../../../arm-atollic-eabi/lib/armv7-m\libc_nano.a(lib_a-makebuf.o)
 .data          0x00000000        0x0 c:/program files (x86)/atollic/truestudio for arm 7.1.0/armtools/bin/../lib/gcc/arm-atollic-eabi/5.3.1/../../../../arm-atollic-eabi/lib/armv7-m\libc_nano.a(lib_a-makebuf.o)
 .bss           0x00000000        0x0 c:/program files (x86)/atollic/truestudio for arm 7.1.0/armtools/bin/../lib/gcc/arm-atollic-eabi/5.3.1/../../../../arm-atollic-eabi/lib/armv7-m\libc_nano.a(lib_a-makebuf.o)
 .text          0x00000000        0x0 c:/program files (x86)/atollic/truestudio for arm 7.1.0/armtools/bin/../lib/gcc/arm-atollic-eabi/5.3.1/../../../../arm-atollic-eabi/lib/armv7-m\libc_nano.a(lib_a-mlock.o)
 .data          0x00000000        0x0 c:/program files (x86)/atollic/truestudio for arm 7.1.0/armtools/bin/../lib/gcc/arm-atollic-eabi/5.3.1/../../../../arm-atollic-eabi/lib/armv7-m\libc_nano.a(lib_a-mlock.o)
 .bss           0x00000000        0x0 c:/program files (x86)/atollic/truestudio for arm 7.1.0/armtools/bin/../lib/gcc/arm-atollic-eabi/5.3.1/../../../../arm-atollic-eabi/lib/armv7-m\libc_nano.a(lib_a-mlock.o)
 .text          0x00000000        0x0 c:/program files (x86)/atollic/truestudio for arm 7.1.0/armtools/bin/../lib/gcc/arm-atollic-eabi/5.3.1/../../../../arm-atollic-eabi/lib/armv7-m\libc_nano.a(lib_a-nano-reallocr.o)
 .data          0x00000000        0x0 c:/program files (x86)/atollic/truestudio for arm 7.1.0/armtools/bin/../lib/gcc/arm-atollic-eabi/5.3.1/../../../../arm-atollic-eabi/lib/armv7-m\libc_nano.a(lib_a-nano-reallocr.o)
 .bss           0x00000000        0x0 c:/program files (x86)/atollic/truestudio for arm 7.1.0/armtools/bin/../lib/gcc/arm-atollic-eabi/5.3.1/../../../../arm-atollic-eabi/lib/armv7-m\libc_nano.a(lib_a-nano-reallocr.o)
 .text          0x00000000        0x0 c:/program files (x86)/atollic/truestudio for arm 7.1.0/armtools/bin/../lib/gcc/arm-atollic-eabi/5.3.1/../../../../arm-atollic-eabi/lib/armv7-m\libc_nano.a(lib_a-nano-svfprintf.o)
 .data          0x00000000        0x0 c:/program files (x86)/atollic/truestudio for arm 7.1.0/armtools/bin/../lib/gcc/arm-atollic-eabi/5.3.1/../../../../arm-atollic-eabi/lib/armv7-m\libc_nano.a(lib_a-nano-svfprintf.o)
 .bss           0x00000000        0x0 c:/program files (x86)/atollic/truestudio for arm 7.1.0/armtools/bin/../lib/gcc/arm-atollic-eabi/5.3.1/../../../../arm-atollic-eabi/lib/armv7-m\libc_nano.a(lib_a-nano-svfprintf.o)
 .text.__ssprint_r
                0x00000000       0xfe c:/program files (x86)/atollic/truestudio for arm 7.1.0/armtools/bin/../lib/gcc/arm-atollic-eabi/5.3.1/../../../../arm-atollic-eabi/lib/armv7-m\libc_nano.a(lib_a-nano-svfprintf.o)
 .text          0x00000000        0x0 c:/program files (x86)/atollic/truestudio for arm 7.1.0/armtools/bin/../lib/gcc/arm-atollic-eabi/5.3.1/../../../../arm-atollic-eabi/lib/armv7-m\libc_nano.a(lib_a-nano-svfscanf.o)
 .data          0x00000000        0x0 c:/program files (x86)/atollic/truestudio for arm 7.1.0/armtools/bin/../lib/gcc/arm-atollic-eabi/5.3.1/../../../../arm-atollic-eabi/lib/armv7-m\libc_nano.a(lib_a-nano-svfscanf.o)
 .bss           0x00000000        0x0 c:/program files (x86)/atollic/truestudio for arm 7.1.0/armtools/bin/../lib/gcc/arm-atollic-eabi/5.3.1/../../../../arm-atollic-eabi/lib/armv7-m\libc_nano.a(lib_a-nano-svfscanf.o)
 .text          0x00000000        0x0 c:/program files (x86)/atollic/truestudio for arm 7.1.0/armtools/bin/../lib/gcc/arm-atollic-eabi/5.3.1/../../../../arm-atollic-eabi/lib/armv7-m\libc_nano.a(lib_a-nano-vfprintf.o)
 .data          0x00000000        0x0 c:/program files (x86)/atollic/truestudio for arm 7.1.0/armtools/bin/../lib/gcc/arm-atollic-eabi/5.3.1/../../../../arm-atollic-eabi/lib/armv7-m\libc_nano.a(lib_a-nano-vfprintf.o)
 .bss           0x00000000        0x0 c:/program files (x86)/atollic/truestudio for arm 7.1.0/armtools/bin/../lib/gcc/arm-atollic-eabi/5.3.1/../../../../arm-atollic-eabi/lib/armv7-m\libc_nano.a(lib_a-nano-vfprintf.o)
 .text.__sfputc_r
                0x00000000       0x2c c:/program files (x86)/atollic/truestudio for arm 7.1.0/armtools/bin/../lib/gcc/arm-atollic-eabi/5.3.1/../../../../arm-atollic-eabi/lib/armv7-m\libc_nano.a(lib_a-nano-vfprintf.o)
 .text.__sfputs_r
                0x00000000       0x24 c:/program files (x86)/atollic/truestudio for arm 7.1.0/armtools/bin/../lib/gcc/arm-atollic-eabi/5.3.1/../../../../arm-atollic-eabi/lib/armv7-m\libc_nano.a(lib_a-nano-vfprintf.o)
 .text.__sprint_r
                0x00000000       0x1a c:/program files (x86)/atollic/truestudio for arm 7.1.0/armtools/bin/../lib/gcc/arm-atollic-eabi/5.3.1/../../../../arm-atollic-eabi/lib/armv7-m\libc_nano.a(lib_a-nano-vfprintf.o)
 .text._vfprintf_r
                0x00000000      0x238 c:/program files (x86)/atollic/truestudio for arm 7.1.0/armtools/bin/../lib/gcc/arm-atollic-eabi/5.3.1/../../../../arm-atollic-eabi/lib/armv7-m\libc_nano.a(lib_a-nano-vfprintf.o)
 .text.vfprintf
                0x00000000       0x14 c:/program files (x86)/atollic/truestudio for arm 7.1.0/armtools/bin/../lib/gcc/arm-atollic-eabi/5.3.1/../../../../arm-atollic-eabi/lib/armv7-m\libc_nano.a(lib_a-nano-vfprintf.o)
 .rodata.str1.1
                0x00000000       0x11 c:/program files (x86)/atollic/truestudio for arm 7.1.0/armtools/bin/../lib/gcc/arm-atollic-eabi/5.3.1/../../../../arm-atollic-eabi/lib/armv7-m\libc_nano.a(lib_a-nano-vfprintf.o)
 .debug_frame   0x00000000       0xac c:/program files (x86)/atollic/truestudio for arm 7.1.0/armtools/bin/../lib/gcc/arm-atollic-eabi/5.3.1/../../../../arm-atollic-eabi/lib/armv7-m\libc_nano.a(lib_a-nano-vfprintf.o)
 .ARM.attributes
                0x00000000       0x2d c:/program files (x86)/atollic/truestudio for arm 7.1.0/armtools/bin/../lib/gcc/arm-atollic-eabi/5.3.1/../../../../arm-atollic-eabi/lib/armv7-m\libc_nano.a(lib_a-nano-vfprintf.o)
 .text          0x00000000        0x0 c:/program files (x86)/atollic/truestudio for arm 7.1.0/armtools/bin/../lib/gcc/arm-atollic-eabi/5.3.1/../../../../arm-atollic-eabi/lib/armv7-m\libc_nano.a(lib_a-nano-vfprintf_i.o)
 .data          0x00000000        0x0 c:/program files (x86)/atollic/truestudio for arm 7.1.0/armtools/bin/../lib/gcc/arm-atollic-eabi/5.3.1/../../../../arm-atollic-eabi/lib/armv7-m\libc_nano.a(lib_a-nano-vfprintf_i.o)
 .bss           0x00000000        0x0 c:/program files (x86)/atollic/truestudio for arm 7.1.0/armtools/bin/../lib/gcc/arm-atollic-eabi/5.3.1/../../../../arm-atollic-eabi/lib/armv7-m\libc_nano.a(lib_a-nano-vfprintf_i.o)
 .text          0x00000000        0x0 c:/program files (x86)/atollic/truestudio for arm 7.1.0/armtools/bin/../lib/gcc/arm-atollic-eabi/5.3.1/../../../../arm-atollic-eabi/lib/armv7-m\libc_nano.a(lib_a-nano-vfscanf_i.o)
 .data          0x00000000        0x0 c:/program files (x86)/atollic/truestudio for arm 7.1.0/armtools/bin/../lib/gcc/arm-atollic-eabi/5.3.1/../../../../arm-atollic-eabi/lib/armv7-m\libc_nano.a(lib_a-nano-vfscanf_i.o)
 .bss           0x00000000        0x0 c:/program files (x86)/atollic/truestudio for arm 7.1.0/armtools/bin/../lib/gcc/arm-atollic-eabi/5.3.1/../../../../arm-atollic-eabi/lib/armv7-m\libc_nano.a(lib_a-nano-vfscanf_i.o)
 .text          0x00000000        0x0 c:/program files (x86)/atollic/truestudio for arm 7.1.0/armtools/bin/../lib/gcc/arm-atollic-eabi/5.3.1/../../../../arm-atollic-eabi/lib/armv7-m\libc_nano.a(lib_a-readr.o)
 .data          0x00000000        0x0 c:/program files (x86)/atollic/truestudio for arm 7.1.0/armtools/bin/../lib/gcc/arm-atollic-eabi/5.3.1/../../../../arm-atollic-eabi/lib/armv7-m\libc_nano.a(lib_a-readr.o)
 .bss           0x00000000        0x0 c:/program files (x86)/atollic/truestudio for arm 7.1.0/armtools/bin/../lib/gcc/arm-atollic-eabi/5.3.1/../../../../arm-atollic-eabi/lib/armv7-m\libc_nano.a(lib_a-readr.o)
 .text          0x00000000        0x0 c:/program files (x86)/atollic/truestudio for arm 7.1.0/armtools/bin/../lib/gcc/arm-atollic-eabi/5.3.1/../../../../arm-atollic-eabi/lib/armv7-m\libc_nano.a(lib_a-reent.o)
 .data          0x00000000        0x0 c:/program files (x86)/atollic/truestudio for arm 7.1.0/armtools/bin/../lib/gcc/arm-atollic-eabi/5.3.1/../../../../arm-atollic-eabi/lib/armv7-m\libc_nano.a(lib_a-reent.o)
 .bss           0x00000000        0x0 c:/program files (x86)/atollic/truestudio for arm 7.1.0/armtools/bin/../lib/gcc/arm-atollic-eabi/5.3.1/../../../../arm-atollic-eabi/lib/armv7-m\libc_nano.a(lib_a-reent.o)
 .text.cleanup_glue
                0x00000000       0x1a c:/program files (x86)/atollic/truestudio for arm 7.1.0/armtools/bin/../lib/gcc/arm-atollic-eabi/5.3.1/../../../../arm-atollic-eabi/lib/armv7-m\libc_nano.a(lib_a-reent.o)
 .text._reclaim_reent
                0x00000000       0xb4 c:/program files (x86)/atollic/truestudio for arm 7.1.0/armtools/bin/../lib/gcc/arm-atollic-eabi/5.3.1/../../../../arm-atollic-eabi/lib/armv7-m\libc_nano.a(lib_a-reent.o)
 .text          0x00000000        0x0 c:/program files (x86)/atollic/truestudio for arm 7.1.0/armtools/bin/../lib/gcc/arm-atollic-eabi/5.3.1/../../../../arm-atollic-eabi/lib/armv7-m\libc_nano.a(lib_a-sccl.o)
 .data          0x00000000        0x0 c:/program files (x86)/atollic/truestudio for arm 7.1.0/armtools/bin/../lib/gcc/arm-atollic-eabi/5.3.1/../../../../arm-atollic-eabi/lib/armv7-m\libc_nano.a(lib_a-sccl.o)
 .bss           0x00000000        0x0 c:/program files (x86)/atollic/truestudio for arm 7.1.0/armtools/bin/../lib/gcc/arm-atollic-eabi/5.3.1/../../../../arm-atollic-eabi/lib/armv7-m\libc_nano.a(lib_a-sccl.o)
 .text          0x00000000        0x0 c:/program files (x86)/atollic/truestudio for arm 7.1.0/armtools/bin/../lib/gcc/arm-atollic-eabi/5.3.1/../../../../arm-atollic-eabi/lib/armv7-m\libc_nano.a(lib_a-strcpy.o)
 .data          0x00000000        0x0 c:/program files (x86)/atollic/truestudio for arm 7.1.0/armtools/bin/../lib/gcc/arm-atollic-eabi/5.3.1/../../../../arm-atollic-eabi/lib/armv7-m\libc_nano.a(lib_a-strcpy.o)
 .bss           0x00000000        0x0 c:/program files (x86)/atollic/truestudio for arm 7.1.0/armtools/bin/../lib/gcc/arm-atollic-eabi/5.3.1/../../../../arm-atollic-eabi/lib/armv7-m\libc_nano.a(lib_a-strcpy.o)
 .text          0x00000000        0x0 c:/program files (x86)/atollic/truestudio for arm 7.1.0/armtools/bin/../lib/gcc/arm-atollic-eabi/5.3.1/../../../../arm-atollic-eabi/lib/armv7-m\libc_nano.a(lib_a-strncmp.o)
 .data          0x00000000        0x0 c:/program files (x86)/atollic/truestudio for arm 7.1.0/armtools/bin/../lib/gcc/arm-atollic-eabi/5.3.1/../../../../arm-atollic-eabi/lib/armv7-m\libc_nano.a(lib_a-strncmp.o)
 .bss           0x00000000        0x0 c:/program files (x86)/atollic/truestudio for arm 7.1.0/armtools/bin/../lib/gcc/arm-atollic-eabi/5.3.1/../../../../arm-atollic-eabi/lib/armv7-m\libc_nano.a(lib_a-strncmp.o)
 .text          0x00000000        0x0 c:/program files (x86)/atollic/truestudio for arm 7.1.0/armtools/bin/../lib/gcc/arm-atollic-eabi/5.3.1/../../../../arm-atollic-eabi/lib/armv7-m\libc_nano.a(lib_a-strtol.o)
 .data          0x00000000        0x0 c:/program files (x86)/atollic/truestudio for arm 7.1.0/armtools/bin/../lib/gcc/arm-atollic-eabi/5.3.1/../../../../arm-atollic-eabi/lib/armv7-m\libc_nano.a(lib_a-strtol.o)
 .bss           0x00000000        0x0 c:/program files (x86)/atollic/truestudio for arm 7.1.0/armtools/bin/../lib/gcc/arm-atollic-eabi/5.3.1/../../../../arm-atollic-eabi/lib/armv7-m\libc_nano.a(lib_a-strtol.o)
 .text.strtol   0x00000000       0x14 c:/program files (x86)/atollic/truestudio for arm 7.1.0/armtools/bin/../lib/gcc/arm-atollic-eabi/5.3.1/../../../../arm-atollic-eabi/lib/armv7-m\libc_nano.a(lib_a-strtol.o)
 .text          0x00000000        0x0 c:/program files (x86)/atollic/truestudio for arm 7.1.0/armtools/bin/../lib/gcc/arm-atollic-eabi/5.3.1/../../../../arm-atollic-eabi/lib/armv7-m\libc_nano.a(lib_a-strtoul.o)
 .data          0x00000000        0x0 c:/program files (x86)/atollic/truestudio for arm 7.1.0/armtools/bin/../lib/gcc/arm-atollic-eabi/5.3.1/../../../../arm-atollic-eabi/lib/armv7-m\libc_nano.a(lib_a-strtoul.o)
 .bss           0x00000000        0x0 c:/program files (x86)/atollic/truestudio for arm 7.1.0/armtools/bin/../lib/gcc/arm-atollic-eabi/5.3.1/../../../../arm-atollic-eabi/lib/armv7-m\libc_nano.a(lib_a-strtoul.o)
 .text          0x00000000        0x0 c:/program files (x86)/atollic/truestudio for arm 7.1.0/armtools/bin/../lib/gcc/arm-atollic-eabi/5.3.1/../../../../arm-atollic-eabi/lib/armv7-m\libc_nano.a(lib_a-ungetc.o)
 .data          0x00000000        0x0 c:/program files (x86)/atollic/truestudio for arm 7.1.0/armtools/bin/../lib/gcc/arm-atollic-eabi/5.3.1/../../../../arm-atollic-eabi/lib/armv7-m\libc_nano.a(lib_a-ungetc.o)
 .bss           0x00000000        0x0 c:/program files (x86)/atollic/truestudio for arm 7.1.0/armtools/bin/../lib/gcc/arm-atollic-eabi/5.3.1/../../../../arm-atollic-eabi/lib/armv7-m\libc_nano.a(lib_a-ungetc.o)
 .text._ungetc_r
                0x00000000       0xe4 c:/program files (x86)/atollic/truestudio for arm 7.1.0/armtools/bin/../lib/gcc/arm-atollic-eabi/5.3.1/../../../../arm-atollic-eabi/lib/armv7-m\libc_nano.a(lib_a-ungetc.o)
 .text.ungetc   0x00000000       0x10 c:/program files (x86)/atollic/truestudio for arm 7.1.0/armtools/bin/../lib/gcc/arm-atollic-eabi/5.3.1/../../../../arm-atollic-eabi/lib/armv7-m\libc_nano.a(lib_a-ungetc.o)
 .text          0x00000000        0x0 c:/program files (x86)/atollic/truestudio for arm 7.1.0/armtools/bin/../lib/gcc/arm-atollic-eabi/5.3.1/../../../../arm-atollic-eabi/lib/armv7-m\libc_nano.a(lib_a-ctype_.o)
 .data          0x00000000        0x0 c:/program files (x86)/atollic/truestudio for arm 7.1.0/armtools/bin/../lib/gcc/arm-atollic-eabi/5.3.1/../../../../arm-atollic-eabi/lib/armv7-m\libc_nano.a(lib_a-ctype_.o)
 .bss           0x00000000        0x0 c:/program files (x86)/atollic/truestudio for arm 7.1.0/armtools/bin/../lib/gcc/arm-atollic-eabi/5.3.1/../../../../arm-atollic-eabi/lib/armv7-m\libc_nano.a(lib_a-ctype_.o)
 .text          0x00000000        0x0 c:/program files (x86)/atollic/truestudio for arm 7.1.0/armtools/bin/../lib/gcc/arm-atollic-eabi/5.3.1/../../../../arm-atollic-eabi/lib/armv7-m\libc_nano.a(lib_a-environ.o)
 .data          0x00000000        0x0 c:/program files (x86)/atollic/truestudio for arm 7.1.0/armtools/bin/../lib/gcc/arm-atollic-eabi/5.3.1/../../../../arm-atollic-eabi/lib/armv7-m\libc_nano.a(lib_a-environ.o)
 .bss           0x00000000        0x0 c:/program files (x86)/atollic/truestudio for arm 7.1.0/armtools/bin/../lib/gcc/arm-atollic-eabi/5.3.1/../../../../arm-atollic-eabi/lib/armv7-m\libc_nano.a(lib_a-environ.o)
 .text          0x00000000        0x0 c:/program files (x86)/atollic/truestudio for arm 7.1.0/armtools/bin/../lib/gcc/arm-atollic-eabi/5.3.1/../../../../arm-atollic-eabi/lib/armv7-m\libc_nano.a(lib_a-envlock.o)
 .data          0x00000000        0x0 c:/program files (x86)/atollic/truestudio for arm 7.1.0/armtools/bin/../lib/gcc/arm-atollic-eabi/5.3.1/../../../../arm-atollic-eabi/lib/armv7-m\libc_nano.a(lib_a-envlock.o)
 .bss           0x00000000        0x0 c:/program files (x86)/atollic/truestudio for arm 7.1.0/armtools/bin/../lib/gcc/arm-atollic-eabi/5.3.1/../../../../arm-atollic-eabi/lib/armv7-m\libc_nano.a(lib_a-envlock.o)
 .text          0x00000000        0x0 c:/program files (x86)/atollic/truestudio for arm 7.1.0/armtools/bin/../lib/gcc/arm-atollic-eabi/5.3.1/../../../../arm-atollic-eabi/lib/armv7-m\libc_nano.a(lib_a-fstatr.o)
 .data          0x00000000        0x0 c:/program files (x86)/atollic/truestudio for arm 7.1.0/armtools/bin/../lib/gcc/arm-atollic-eabi/5.3.1/../../../../arm-atollic-eabi/lib/armv7-m\libc_nano.a(lib_a-fstatr.o)
 .bss           0x00000000        0x0 c:/program files (x86)/atollic/truestudio for arm 7.1.0/armtools/bin/../lib/gcc/arm-atollic-eabi/5.3.1/../../../../arm-atollic-eabi/lib/armv7-m\libc_nano.a(lib_a-fstatr.o)
 .text          0x00000000        0x0 c:/program files (x86)/atollic/truestudio for arm 7.1.0/armtools/bin/../lib/gcc/arm-atollic-eabi/5.3.1/../../../../arm-atollic-eabi/lib/armv7-m\libc_nano.a(lib_a-fvwrite.o)
 .data          0x00000000        0x0 c:/program files (x86)/atollic/truestudio for arm 7.1.0/armtools/bin/../lib/gcc/arm-atollic-eabi/5.3.1/../../../../arm-atollic-eabi/lib/armv7-m\libc_nano.a(lib_a-fvwrite.o)
 .bss           0x00000000        0x0 c:/program files (x86)/atollic/truestudio for arm 7.1.0/armtools/bin/../lib/gcc/arm-atollic-eabi/5.3.1/../../../../arm-atollic-eabi/lib/armv7-m\libc_nano.a(lib_a-fvwrite.o)
 .text.__sfvwrite_r
                0x00000000      0x294 c:/program files (x86)/atollic/truestudio for arm 7.1.0/armtools/bin/../lib/gcc/arm-atollic-eabi/5.3.1/../../../../arm-atollic-eabi/lib/armv7-m\libc_nano.a(lib_a-fvwrite.o)
 .debug_frame   0x00000000       0x3c c:/program files (x86)/atollic/truestudio for arm 7.1.0/armtools/bin/../lib/gcc/arm-atollic-eabi/5.3.1/../../../../arm-atollic-eabi/lib/armv7-m\libc_nano.a(lib_a-fvwrite.o)
 .ARM.attributes
                0x00000000       0x2d c:/program files (x86)/atollic/truestudio for arm 7.1.0/armtools/bin/../lib/gcc/arm-atollic-eabi/5.3.1/../../../../arm-atollic-eabi/lib/armv7-m\libc_nano.a(lib_a-fvwrite.o)
 .text          0x00000000        0x0 c:/program files (x86)/atollic/truestudio for arm 7.1.0/armtools/bin/../lib/gcc/arm-atollic-eabi/5.3.1/../../../../arm-atollic-eabi/lib/armv7-m\libc_nano.a(lib_a-isattyr.o)
 .data          0x00000000        0x0 c:/program files (x86)/atollic/truestudio for arm 7.1.0/armtools/bin/../lib/gcc/arm-atollic-eabi/5.3.1/../../../../arm-atollic-eabi/lib/armv7-m\libc_nano.a(lib_a-isattyr.o)
 .bss           0x00000000        0x0 c:/program files (x86)/atollic/truestudio for arm 7.1.0/armtools/bin/../lib/gcc/arm-atollic-eabi/5.3.1/../../../../arm-atollic-eabi/lib/armv7-m\libc_nano.a(lib_a-isattyr.o)
 .text          0x00000000        0x0 c:/program files (x86)/atollic/truestudio for arm 7.1.0/armtools/bin/../lib/gcc/arm-atollic-eabi/5.3.1/../../../../arm-atollic-eabi/lib/armv7-m\libc_nano.a(lib_a-memchr-stub.o)
 .data          0x00000000        0x0 c:/program files (x86)/atollic/truestudio for arm 7.1.0/armtools/bin/../lib/gcc/arm-atollic-eabi/5.3.1/../../../../arm-atollic-eabi/lib/armv7-m\libc_nano.a(lib_a-memchr-stub.o)
 .bss           0x00000000        0x0 c:/program files (x86)/atollic/truestudio for arm 7.1.0/armtools/bin/../lib/gcc/arm-atollic-eabi/5.3.1/../../../../arm-atollic-eabi/lib/armv7-m\libc_nano.a(lib_a-memchr-stub.o)
 .text          0x00000000        0x0 c:/program files (x86)/atollic/truestudio for arm 7.1.0/armtools/bin/../lib/gcc/arm-atollic-eabi/5.3.1/../../../../arm-atollic-eabi/lib/armv7-m\libc_nano.a(lib_a-nano-msizer.o)
 .data          0x00000000        0x0 c:/program files (x86)/atollic/truestudio for arm 7.1.0/armtools/bin/../lib/gcc/arm-atollic-eabi/5.3.1/../../../../arm-atollic-eabi/lib/armv7-m\libc_nano.a(lib_a-nano-msizer.o)
 .bss           0x00000000        0x0 c:/program files (x86)/atollic/truestudio for arm 7.1.0/armtools/bin/../lib/gcc/arm-atollic-eabi/5.3.1/../../../../arm-atollic-eabi/lib/armv7-m\libc_nano.a(lib_a-nano-msizer.o)
 .data          0x00000000        0x0 c:/program files (x86)/atollic/truestudio for arm 7.1.0/armtools/bin/../lib/gcc/arm-atollic-eabi/5.3.1/armv7-m\libgcc.a(_arm_addsubdf3.o)
 .bss           0x00000000        0x0 c:/program files (x86)/atollic/truestudio for arm 7.1.0/armtools/bin/../lib/gcc/arm-atollic-eabi/5.3.1/armv7-m\libgcc.a(_arm_addsubdf3.o)
 .data          0x00000000        0x0 c:/program files (x86)/atollic/truestudio for arm 7.1.0/armtools/bin/../lib/gcc/arm-atollic-eabi/5.3.1/armv7-m\libgcc.a(_arm_muldivdf3.o)
 .bss           0x00000000        0x0 c:/program files (x86)/atollic/truestudio for arm 7.1.0/armtools/bin/../lib/gcc/arm-atollic-eabi/5.3.1/armv7-m\libgcc.a(_arm_muldivdf3.o)
 .text          0x00000000      0x110 c:/program files (x86)/atollic/truestudio for arm 7.1.0/armtools/bin/../lib/gcc/arm-atollic-eabi/5.3.1/armv7-m\libgcc.a(_arm_cmpdf2.o)
 .data          0x00000000        0x0 c:/program files (x86)/atollic/truestudio for arm 7.1.0/armtools/bin/../lib/gcc/arm-atollic-eabi/5.3.1/armv7-m\libgcc.a(_arm_cmpdf2.o)
 .bss           0x00000000        0x0 c:/program files (x86)/atollic/truestudio for arm 7.1.0/armtools/bin/../lib/gcc/arm-atollic-eabi/5.3.1/armv7-m\libgcc.a(_arm_cmpdf2.o)
 .ARM.attributes
                0x00000000       0x1d c:/program files (x86)/atollic/truestudio for arm 7.1.0/armtools/bin/../lib/gcc/arm-atollic-eabi/5.3.1/armv7-m\libgcc.a(_arm_cmpdf2.o)
 .data          0x00000000        0x0 c:/program files (x86)/atollic/truestudio for arm 7.1.0/armtools/bin/../lib/gcc/arm-atollic-eabi/5.3.1/armv7-m\libgcc.a(_arm_fixdfsi.o)
 .bss           0x00000000        0x0 c:/program files (x86)/atollic/truestudio for arm 7.1.0/armtools/bin/../lib/gcc/arm-atollic-eabi/5.3.1/armv7-m\libgcc.a(_arm_fixdfsi.o)
 .data          0x00000000        0x0 c:/program files (x86)/atollic/truestudio for arm 7.1.0/armtools/bin/../lib/gcc/arm-atollic-eabi/5.3.1/armv7-m\libgcc.a(_arm_fixunsdfsi.o)
 .bss           0x00000000        0x0 c:/program files (x86)/atollic/truestudio for arm 7.1.0/armtools/bin/../lib/gcc/arm-atollic-eabi/5.3.1/armv7-m\libgcc.a(_arm_fixunsdfsi.o)
 .data          0x00000000        0x0 c:/program files (x86)/atollic/truestudio for arm 7.1.0/armtools/bin/../lib/gcc/arm-atollic-eabi/5.3.1/armv7-m\libgcc.a(_arm_fixsfsi.o)
 .bss           0x00000000        0x0 c:/program files (x86)/atollic/truestudio for arm 7.1.0/armtools/bin/../lib/gcc/arm-atollic-eabi/5.3.1/armv7-m\libgcc.a(_arm_fixsfsi.o)
 .data          0x00000000        0x0 c:/program files (x86)/atollic/truestudio for arm 7.1.0/armtools/bin/../lib/gcc/arm-atollic-eabi/5.3.1/armv7-m\libgcc.a(_aeabi_ldivmod.o)
 .bss           0x00000000        0x0 c:/program files (x86)/atollic/truestudio for arm 7.1.0/armtools/bin/../lib/gcc/arm-atollic-eabi/5.3.1/armv7-m\libgcc.a(_aeabi_ldivmod.o)
 .data          0x00000000        0x0 c:/program files (x86)/atollic/truestudio for arm 7.1.0/armtools/bin/../lib/gcc/arm-atollic-eabi/5.3.1/armv7-m\libgcc.a(_udivmoddi4.o)
 .bss           0x00000000        0x0 c:/program files (x86)/atollic/truestudio for arm 7.1.0/armtools/bin/../lib/gcc/arm-atollic-eabi/5.3.1/armv7-m\libgcc.a(_udivmoddi4.o)
 .ARM.extab     0x00000000        0x0 c:/program files (x86)/atollic/truestudio for arm 7.1.0/armtools/bin/../lib/gcc/arm-atollic-eabi/5.3.1/armv7-m\libgcc.a(_udivmoddi4.o)
 .data          0x00000000        0x0 c:/program files (x86)/atollic/truestudio for arm 7.1.0/armtools/bin/../lib/gcc/arm-atollic-eabi/5.3.1/armv7-m\libgcc.a(_dvmd_tls.o)
 .bss           0x00000000        0x0 c:/program files (x86)/atollic/truestudio for arm 7.1.0/armtools/bin/../lib/gcc/arm-atollic-eabi/5.3.1/armv7-m\libgcc.a(_dvmd_tls.o)
 .text          0x00000000        0x0 c:/program files (x86)/atollic/truestudio for arm 7.1.0/armtools/bin/../lib/gcc/arm-atollic-eabi/5.3.1/../../../../arm-atollic-eabi/lib/armv7-m\libnosys.a(close.o)
 .data          0x00000000        0x0 c:/program files (x86)/atollic/truestudio for arm 7.1.0/armtools/bin/../lib/gcc/arm-atollic-eabi/5.3.1/../../../../arm-atollic-eabi/lib/armv7-m\libnosys.a(close.o)
 .bss           0x00000000        0x0 c:/program files (x86)/atollic/truestudio for arm 7.1.0/armtools/bin/../lib/gcc/arm-atollic-eabi/5.3.1/../../../../arm-atollic-eabi/lib/armv7-m\libnosys.a(close.o)
 .text          0x00000000        0x0 c:/program files (x86)/atollic/truestudio for arm 7.1.0/armtools/bin/../lib/gcc/arm-atollic-eabi/5.3.1/../../../../arm-atollic-eabi/lib/armv7-m\libnosys.a(fstat.o)
 .data          0x00000000        0x0 c:/program files (x86)/atollic/truestudio for arm 7.1.0/armtools/bin/../lib/gcc/arm-atollic-eabi/5.3.1/../../../../arm-atollic-eabi/lib/armv7-m\libnosys.a(fstat.o)
 .bss           0x00000000        0x0 c:/program files (x86)/atollic/truestudio for arm 7.1.0/armtools/bin/../lib/gcc/arm-atollic-eabi/5.3.1/../../../../arm-atollic-eabi/lib/armv7-m\libnosys.a(fstat.o)
 .text          0x00000000        0x0 c:/program files (x86)/atollic/truestudio for arm 7.1.0/armtools/bin/../lib/gcc/arm-atollic-eabi/5.3.1/../../../../arm-atollic-eabi/lib/armv7-m\libnosys.a(isatty.o)
 .data          0x00000000        0x0 c:/program files (x86)/atollic/truestudio for arm 7.1.0/armtools/bin/../lib/gcc/arm-atollic-eabi/5.3.1/../../../../arm-atollic-eabi/lib/armv7-m\libnosys.a(isatty.o)
 .bss           0x00000000        0x0 c:/program files (x86)/atollic/truestudio for arm 7.1.0/armtools/bin/../lib/gcc/arm-atollic-eabi/5.3.1/../../../../arm-atollic-eabi/lib/armv7-m\libnosys.a(isatty.o)
 .text          0x00000000        0x0 c:/program files (x86)/atollic/truestudio for arm 7.1.0/armtools/bin/../lib/gcc/arm-atollic-eabi/5.3.1/../../../../arm-atollic-eabi/lib/armv7-m\libnosys.a(lseek.o)
 .data          0x00000000        0x0 c:/program files (x86)/atollic/truestudio for arm 7.1.0/armtools/bin/../lib/gcc/arm-atollic-eabi/5.3.1/../../../../arm-atollic-eabi/lib/armv7-m\libnosys.a(lseek.o)
 .bss           0x00000000        0x0 c:/program files (x86)/atollic/truestudio for arm 7.1.0/armtools/bin/../lib/gcc/arm-atollic-eabi/5.3.1/../../../../arm-atollic-eabi/lib/armv7-m\libnosys.a(lseek.o)
 .text          0x00000000        0x0 c:/program files (x86)/atollic/truestudio for arm 7.1.0/armtools/bin/../lib/gcc/arm-atollic-eabi/5.3.1/../../../../arm-atollic-eabi/lib/armv7-m\libnosys.a(read.o)
 .data          0x00000000        0x0 c:/program files (x86)/atollic/truestudio for arm 7.1.0/armtools/bin/../lib/gcc/arm-atollic-eabi/5.3.1/../../../../arm-atollic-eabi/lib/armv7-m\libnosys.a(read.o)
 .bss           0x00000000        0x0 c:/program files (x86)/atollic/truestudio for arm 7.1.0/armtools/bin/../lib/gcc/arm-atollic-eabi/5.3.1/../../../../arm-atollic-eabi/lib/armv7-m\libnosys.a(read.o)
 .text          0x00000000        0x0 c:/program files (x86)/atollic/truestudio for arm 7.1.0/armtools/bin/../lib/gcc/arm-atollic-eabi/5.3.1/../../../../arm-atollic-eabi/lib/armv7-m\libnosys.a(sbrk.o)
 .data          0x00000000        0x0 c:/program files (x86)/atollic/truestudio for arm 7.1.0/armtools/bin/../lib/gcc/arm-atollic-eabi/5.3.1/../../../../arm-atollic-eabi/lib/armv7-m\libnosys.a(sbrk.o)
 .bss           0x00000000        0x0 c:/program files (x86)/atollic/truestudio for arm 7.1.0/armtools/bin/../lib/gcc/arm-atollic-eabi/5.3.1/../../../../arm-atollic-eabi/lib/armv7-m\libnosys.a(sbrk.o)
 .text          0x00000000        0x0 c:/program files (x86)/atollic/truestudio for arm 7.1.0/armtools/bin/../lib/gcc/arm-atollic-eabi/5.3.1/../../../../arm-atollic-eabi/lib/armv7-m\libnosys.a(write.o)
 .data          0x00000000        0x0 c:/program files (x86)/atollic/truestudio for arm 7.1.0/armtools/bin/../lib/gcc/arm-atollic-eabi/5.3.1/../../../../arm-atollic-eabi/lib/armv7-m\libnosys.a(write.o)
 .bss           0x00000000        0x0 c:/program files (x86)/atollic/truestudio for arm 7.1.0/armtools/bin/../lib/gcc/arm-atollic-eabi/5.3.1/../../../../arm-atollic-eabi/lib/armv7-m\libnosys.a(write.o)
 .text          0x00000000        0x0 c:/program files (x86)/atollic/truestudio for arm 7.1.0/armtools/bin/../lib/gcc/arm-atollic-eabi/5.3.1/armv7-m/crtend.o
 .data          0x00000000        0x0 c:/program files (x86)/atollic/truestudio for arm 7.1.0/armtools/bin/../lib/gcc/arm-atollic-eabi/5.3.1/armv7-m/crtend.o
 .bss           0x00000000        0x0 c:/program files (x86)/atollic/truestudio for arm 7.1.0/armtools/bin/../lib/gcc/arm-atollic-eabi/5.3.1/armv7-m/crtend.o
 .eh_frame      0x00000000        0x4 c:/program files (x86)/atollic/truestudio for arm 7.1.0/armtools/bin/../lib/gcc/arm-atollic-eabi/5.3.1/armv7-m/crtend.o
 .ARM.attributes
                0x00000000       0x2d c:/program files (x86)/atollic/truestudio for arm 7.1.0/armtools/bin/../lib/gcc/arm-atollic-eabi/5.3.1/armv7-m/crtend.o
 .text          0x00000000        0x0 c:/program files (x86)/atollic/truestudio for arm 7.1.0/armtools/bin/../lib/gcc/arm-atollic-eabi/5.3.1/armv7-m/crtn.o
 .data          0x00000000        0x0 c:/program files (x86)/atollic/truestudio for arm 7.1.0/armtools/bin/../lib/gcc/arm-atollic-eabi/5.3.1/armv7-m/crtn.o
 .bss           0x00000000        0x0 c:/program files (x86)/atollic/truestudio for arm 7.1.0/armtools/bin/../lib/gcc/arm-atollic-eabi/5.3.1/armv7-m/crtn.o

Memory Configuration

Name             Origin             Length             Attributes
FLASH            0x00000000         0x00080000         xr
RAM              0x10000000         0x00008000         xrw
RAM1             0x2007c000         0x00004000         xrw
RAM2             0x20080000         0x00004000         xrw
MEMORY_B1        0x80000000         0x00000000         xr
*default*        0x00000000         0xffffffff

Linker script and memory map

LOAD c:/program files (x86)/atollic/truestudio for arm 7.1.0/armtools/bin/../lib/gcc/arm-atollic-eabi/5.3.1/armv7-m/crti.o
LOAD c:/program files (x86)/atollic/truestudio for arm 7.1.0/armtools/bin/../lib/gcc/arm-atollic-eabi/5.3.1/armv7-m/crtbegin.o
LOAD Libraries\CMSIS\CM3\CoreSupport\core_cm3.o
LOAD UART\SRC\uart.o
LOAD dlms\src\apdu.o
LOAD dlms\src\bitarray.o
LOAD dlms\src\bytebuffer.o
LOAD dlms\src\ciphering.o
LOAD dlms\src\client.o
LOAD dlms\src\converters.o
LOAD dlms\src\cosem.o
LOAD dlms\src\datainfo.o
LOAD dlms\src\date.o
LOAD dlms\src\dlms.o
LOAD dlms\src\dlmsSettings.o
LOAD dlms\src\gxaes.o
LOAD dlms\src\gxarray.o
LOAD dlms\src\gxget.o
LOAD dlms\src\gxinvoke.o
LOAD dlms\src\gxkey.o
LOAD dlms\src\gxmd5.o
LOAD dlms\src\gxobjects.o
LOAD dlms\src\gxset.o
LOAD dlms\src\gxsha1.o
LOAD dlms\src\gxsha256.o
LOAD dlms\src\gxvalueeventargs.o
LOAD dlms\src\helpers.o
LOAD dlms\src\message.o
LOAD dlms\src\notify.o
LOAD dlms\src\objectarray.o
LOAD dlms\src\parameters.o
LOAD dlms\src\replydata.o
LOAD dlms\src\server.o
LOAD dlms\src\variant.o
LOAD energymeter\LT_energymeter.o
LOAD modbus\modbus.o
LOAD src\main.o
LOAD src\startup_LPC17xx.o
LOAD src\system_LPC17xx.o
LOAD systick_timer\systick_timer.o
START GROUP
LOAD c:/program files (x86)/atollic/truestudio for arm 7.1.0/armtools/bin/../lib/gcc/arm-atollic-eabi/5.3.1/../../../../arm-atollic-eabi/lib/armv7-m\libc_nano.a
LOAD c:/program files (x86)/atollic/truestudio for arm 7.1.0/armtools/bin/../lib/gcc/arm-atollic-eabi/5.3.1/../../../../arm-atollic-eabi/lib/armv7-m\libm.a
END GROUP
                0x00000080                malloc_getpagesize_P = 0x80
START GROUP
LOAD c:/program files (x86)/atollic/truestudio for arm 7.1.0/armtools/bin/../lib/gcc/arm-atollic-eabi/5.3.1/armv7-m\libgcc.a
LOAD c:/program files (x86)/atollic/truestudio for arm 7.1.0/armtools/bin/../lib/gcc/arm-atollic-eabi/5.3.1/../../../../arm-atollic-eabi/lib/armv7-m\libc_nano.a
END GROUP
START GROUP
LOAD c:/program files (x86)/atollic/truestudio for arm 7.1.0/armtools/bin/../lib/gcc/arm-atollic-eabi/5.3.1/armv7-m\libgcc.a
LOAD c:/program files (x86)/atollic/truestudio for arm 7.1.0/armtools/bin/../lib/gcc/arm-atollic-eabi/5.3.1/../../../../arm-atollic-eabi/lib/armv7-m\libc_nano.a
LOAD c:/program files (x86)/atollic/truestudio for arm 7.1.0/armtools/bin/../lib/gcc/arm-atollic-eabi/5.3.1/../../../../arm-atollic-eabi/lib/armv7-m\libnosys.a
END GROUP
START GROUP
LOAD c:/program files (x86)/atollic/truestudio for arm 7.1.0/armtools/bin/../lib/gcc/arm-atollic-eabi/5.3.1/armv7-m\libgcc.a
LOAD c:/program files (x86)/atollic/truestudio for arm 7.1.0/armtools/bin/../lib/gcc/arm-atollic-eabi/5.3.1/../../../../arm-atollic-eabi/lib/armv7-m\libc_nano.a
LOAD c:/program files (x86)/atollic/truestudio for arm 7.1.0/armtools/bin/../lib/gcc/arm-atollic-eabi/5.3.1/../../../../arm-atollic-eabi/lib/armv7-m\libnosys.a
END GROUP
LOAD c:/program files (x86)/atollic/truestudio for arm 7.1.0/armtools/bin/../lib/gcc/arm-atollic-eabi/5.3.1/armv7-m/crtend.o
LOAD c:/program files (x86)/atollic/truestudio for arm 7.1.0/armtools/bin/../lib/gcc/arm-atollic-eabi/5.3.1/armv7-m/crtn.o
                0x10008000                _estack = 0x10008000
                0x00000000                _Min_Heap_Size = 0x0
                0x00000100                _Min_Stack_Size = 0x100

.isr_vector     0x00000000       0xcc
                0x00000000                . = ALIGN (0x4)
                0x00000000                _isr_vector = .
 *(.isr_vector)
 .isr_vector    0x00000000       0xcc src\startup_LPC17xx.o
                0x00000000                g_pfnVectors
                0x000000cc                . = ALIGN (0x4)

.text           0x000000cc    0x2beb0
                0x000000cc                . = ALIGN (0x4)
 *(.text)
 .text          0x000000cc       0x40 c:/program files (x86)/atollic/truestudio for arm 7.1.0/armtools/bin/../lib/gcc/arm-atollic-eabi/5.3.1/armv7-m/crtbegin.o
 .text          0x0000010c       0x14 c:/program files (x86)/atollic/truestudio for arm 7.1.0/armtools/bin/../lib/gcc/arm-atollic-eabi/5.3.1/../../../../arm-atollic-eabi/lib/armv7-m\libc_nano.a(lib_a-strcmp.o)
                0x0000010c                strcmp
 .text          0x00000120       0x10 c:/program files (x86)/atollic/truestudio for arm 7.1.0/armtools/bin/../lib/gcc/arm-atollic-eabi/5.3.1/../../../../arm-atollic-eabi/lib/armv7-m\libc_nano.a(lib_a-strlen.o)
                0x00000120                strlen
 .text          0x00000130      0x370 c:/program files (x86)/atollic/truestudio for arm 7.1.0/armtools/bin/../lib/gcc/arm-atollic-eabi/5.3.1/armv7-m\libgcc.a(_arm_addsubdf3.o)
                0x00000130                __aeabi_drsub
                0x00000138                __aeabi_dsub
                0x00000138                __subdf3
                0x0000013c                __aeabi_dadd
                0x0000013c                __adddf3
                0x000003b4                __floatunsidf
                0x000003b4                __aeabi_ui2d
                0x000003d4                __floatsidf
                0x000003d4                __aeabi_i2d
                0x000003f8                __aeabi_f2d
                0x000003f8                __extendsfdf2
                0x00000434                __floatundidf
                0x00000434                __aeabi_ul2d
                0x00000444                __floatdidf
                0x00000444                __aeabi_l2d
 .text          0x000004a0      0x424 c:/program files (x86)/atollic/truestudio for arm 7.1.0/armtools/bin/../lib/gcc/arm-atollic-eabi/5.3.1/armv7-m\libgcc.a(_arm_muldivdf3.o)
                0x000004a0                __aeabi_dmul
                0x000004a0                __muldf3
                0x000006f4                __divdf3
                0x000006f4                __aeabi_ddiv
 .text          0x000008c4       0x50 c:/program files (x86)/atollic/truestudio for arm 7.1.0/armtools/bin/../lib/gcc/arm-atollic-eabi/5.3.1/armv7-m\libgcc.a(_arm_fixdfsi.o)
                0x000008c4                __aeabi_d2iz
                0x000008c4                __fixdfsi
 .text          0x00000914       0x40 c:/program files (x86)/atollic/truestudio for arm 7.1.0/armtools/bin/../lib/gcc/arm-atollic-eabi/5.3.1/armv7-m\libgcc.a(_arm_fixunsdfsi.o)
                0x00000914                __aeabi_d2uiz
                0x00000914                __fixunsdfsi
 .text          0x00000954       0x4c c:/program files (x86)/atollic/truestudio for arm 7.1.0/armtools/bin/../lib/gcc/arm-atollic-eabi/5.3.1/armv7-m\libgcc.a(_arm_fixsfsi.o)
                0x00000954                __aeabi_f2iz
                0x00000954                __fixsfsi
 .text          0x000009a0       0xa0 c:/program files (x86)/atollic/truestudio for arm 7.1.0/armtools/bin/../lib/gcc/arm-atollic-eabi/5.3.1/armv7-m\libgcc.a(_aeabi_ldivmod.o)
                0x000009a0                __aeabi_ldivmod
 .text          0x00000a40      0x2ec c:/program files (x86)/atollic/truestudio for arm 7.1.0/armtools/bin/../lib/gcc/arm-atollic-eabi/5.3.1/armv7-m\libgcc.a(_udivmoddi4.o)
                0x00000a40                __udivmoddi4
 .text          0x00000d2c        0x4 c:/program files (x86)/atollic/truestudio for arm 7.1.0/armtools/bin/../lib/gcc/arm-atollic-eabi/5.3.1/armv7-m\libgcc.a(_dvmd_tls.o)
                0x00000d2c                __aeabi_idiv0
                0x00000d2c                __aeabi_ldiv0
 *(.text*)
 .text.NVIC_EnableIRQ
                0x00000d30       0x30 UART\SRC\uart.o
 .text.UARTInit
                0x00000d60      0x178 UART\SRC\uart.o
                0x00000d60                UARTInit
 .text.UARTSend
                0x00000ed8       0x88 UART\SRC\uart.o
                0x00000ed8                UARTSend
 .text.apdu_generateApplicationContextName
                0x00000f60      0x210 dlms\src\apdu.o
                0x00000f60                apdu_generateApplicationContextName
 .text.apdu_parseUserInformation
                0x00001170      0x480 dlms\src\apdu.o
                0x00001170                apdu_parseUserInformation
 .text.apdu_parseApplicationContextName
                0x000015f0      0x1e0 dlms\src\apdu.o
                0x000015f0                apdu_parseApplicationContextName
 .text.apdu_validateAare
                0x000017d0       0x50 dlms\src\apdu.o
                0x000017d0                apdu_validateAare
 .text.apdu_updatePassword
                0x00001820       0xb0 dlms\src\apdu.o
                0x00001820                apdu_updatePassword
 .text.apdu_updateAuthentication
                0x000018d0      0x130 dlms\src\apdu.o
                0x000018d0                apdu_updateAuthentication
 .text.apdu_getUserInformation
                0x00001a00      0x18c dlms\src\apdu.o
                0x00001a00                apdu_getUserInformation
 .text.apdu_handleResultComponent
                0x00001b8c       0x88 dlms\src\apdu.o
                0x00001b8c                apdu_handleResultComponent
 .text.apdu_parseProtocolVersion
                0x00001c14       0xd0 dlms\src\apdu.o
                0x00001c14                apdu_parseProtocolVersion
 .text.apdu_parsePDU
                0x00001ce4      0x734 dlms\src\apdu.o
                0x00001ce4                apdu_parsePDU
 .text.apdu_generateAARE
                0x00002418      0x320 dlms\src\apdu.o
                0x00002418                apdu_generateAARE
 .text.ba_getByteCount
                0x00002738       0x7c dlms\src\bitarray.o
                0x00002738                ba_getByteCount
 .text.getByteIndex
                0x000027b4       0x44 dlms\src\bitarray.o
                0x000027b4                getByteIndex
 .text.ba_init  0x000027f8       0x2c dlms\src\bitarray.o
                0x000027f8                ba_init
 .text.ba_capacity
                0x00002824       0x7c dlms\src\bitarray.o
                0x00002824                ba_capacity
 .text.ba_set   0x000028a0       0x30 dlms\src\bitarray.o
                0x000028a0                ba_set
 .text.ba_setByIndex
                0x000028d0      0x108 dlms\src\bitarray.o
                0x000028d0                ba_setByIndex
 .text.ba_add   0x000029d8       0xdc dlms\src\bitarray.o
                0x000029d8                ba_add
 .text.ba_copy  0x00002ab4       0x54 dlms\src\bitarray.o
                0x00002ab4                ba_copy
 .text.ba_clear
                0x00002b08       0x3c dlms\src\bitarray.o
                0x00002b08                ba_clear
 .text.ba_getByIndex
                0x00002b44       0x70 dlms\src\bitarray.o
                0x00002b44                ba_getByIndex
 .text.ba_toInteger
                0x00002bb4       0x6c dlms\src\bitarray.o
                0x00002bb4                ba_toInteger
 .text.ba_toString
                0x00002c20       0x6c dlms\src\bitarray.o
                0x00002c20                ba_toString
 .text.bb_isAttached
                0x00002c8c       0x20 dlms\src\bytebuffer.o
                0x00002c8c                bb_isAttached
 .text.bb_getCapacity
                0x00002cac       0x1c dlms\src\bytebuffer.o
                0x00002cac                bb_getCapacity
 .text.bb_size  0x00002cc8       0x20 dlms\src\bytebuffer.o
                0x00002cc8                bb_size
 .text.bb_init  0x00002ce8       0x2c dlms\src\bytebuffer.o
                0x00002ce8                bb_init
 .text.bb_capacity
                0x00002d14       0x9c dlms\src\bytebuffer.o
                0x00002d14                bb_capacity
 .text.bb_zero  0x00002db0       0x64 dlms\src\bytebuffer.o
                0x00002db0                bb_zero
 .text.bb_setUInt8
                0x00002e14       0x38 dlms\src\bytebuffer.o
                0x00002e14                bb_setUInt8
 .text.bb_insertUInt8
                0x00002e4c       0x44 dlms\src\bytebuffer.o
                0x00002e4c                bb_insertUInt8
 .text.bb_setUInt8ByIndex
                0x00002e90       0xa8 dlms\src\bytebuffer.o
                0x00002e90                bb_setUInt8ByIndex
 .text.bb_setUInt16
                0x00002f38       0xc4 dlms\src\bytebuffer.o
                0x00002f38                bb_setUInt16
 .text.bb_setUInt32
                0x00002ffc       0x38 dlms\src\bytebuffer.o
                0x00002ffc                bb_setUInt32
 .text.bb_setUInt32ByIndex
                0x00003034       0xd0 dlms\src\bytebuffer.o
                0x00003034                bb_setUInt32ByIndex
 .text.bb_setUInt64
                0x00003104      0x1d8 dlms\src\bytebuffer.o
                0x00003104                bb_setUInt64
 .text.bb_setFloat
                0x000032dc       0xdc dlms\src\bytebuffer.o
                0x000032dc                bb_setFloat
 .text.bb_setDouble
                0x000033b8      0x124 dlms\src\bytebuffer.o
                0x000033b8                bb_setDouble
 .text.bb_setInt8
                0x000034dc       0x20 dlms\src\bytebuffer.o
                0x000034dc                bb_setInt8
 .text.bb_setInt16
                0x000034fc       0x20 dlms\src\bytebuffer.o
                0x000034fc                bb_setInt16
 .text.bb_setInt32
                0x0000351c       0x20 dlms\src\bytebuffer.o
                0x0000351c                bb_setInt32
 .text.bb_setInt64
                0x0000353c       0x24 dlms\src\bytebuffer.o
                0x0000353c                bb_setInt64
 .text.bb_set   0x00003560       0xc0 dlms\src\bytebuffer.o
                0x00003560                bb_set
 .text.bb_set2  0x00003620       0x6c dlms\src\bytebuffer.o
                0x00003620                bb_set2
 .text.bb_addString
                0x0000368c       0x64 dlms\src\bytebuffer.o
                0x0000368c                bb_addString
 .text.bb_attach
                0x000036f0       0x44 dlms\src\bytebuffer.o
                0x000036f0                bb_attach
 .text.bb_attachString
                0x00003734       0x30 dlms\src\bytebuffer.o
                0x00003734                bb_attachString
 .text.bb_clear
                0x00003764       0x48 dlms\src\bytebuffer.o
                0x00003764                bb_clear
 .text.bb_getUInt8
                0x000037ac       0x44 dlms\src\bytebuffer.o
                0x000037ac                bb_getUInt8
 .text.bb_getInt8
                0x000037f0       0x48 dlms\src\bytebuffer.o
                0x000037f0                bb_getInt8
 .text.bb_getUInt8ByIndex
                0x00003838       0x38 dlms\src\bytebuffer.o
                0x00003838                bb_getUInt8ByIndex
 .text.bb_getUInt16
                0x00003870       0x60 dlms\src\bytebuffer.o
                0x00003870                bb_getUInt16
 .text.bb_getUInt32
                0x000038d0       0x7c dlms\src\bytebuffer.o
                0x000038d0                bb_getUInt32
 .text.bb_getInt16
                0x0000394c       0x60 dlms\src\bytebuffer.o
                0x0000394c                bb_getInt16
 .text.bb_getInt32
                0x000039ac       0x30 dlms\src\bytebuffer.o
                0x000039ac                bb_getInt32
 .text.bb_getUInt32ByIndex
                0x000039dc       0x68 dlms\src\bytebuffer.o
                0x000039dc                bb_getUInt32ByIndex
 .text.bb_getInt64
                0x00003a44       0x38 dlms\src\bytebuffer.o
                0x00003a44                bb_getInt64
 .text.bb_getUInt64
                0x00003a7c       0x38 dlms\src\bytebuffer.o
                0x00003a7c                bb_getUInt64
 .text.bb_getUInt64ByIndex
                0x00003ab4       0xe8 dlms\src\bytebuffer.o
                0x00003ab4                bb_getUInt64ByIndex
 .text.bb_getFloat
                0x00003b9c       0x7c dlms\src\bytebuffer.o
                0x00003b9c                bb_getFloat
 .text.bb_getDouble
                0x00003c18       0xc0 dlms\src\bytebuffer.o
                0x00003c18                bb_getDouble
 .text.bb_getUInt16ByIndex
                0x00003cd8       0x50 dlms\src\bytebuffer.o
                0x00003cd8                bb_getUInt16ByIndex
 .text.bb_addHexString
                0x00003d28       0x50 dlms\src\bytebuffer.o
                0x00003d28                bb_addHexString
 .text.bb_toHexString
                0x00003d78       0x24 dlms\src\bytebuffer.o
                0x00003d78                bb_toHexString
 .text.bb_addIntAsString
                0x00003d9c       0x2c dlms\src\bytebuffer.o
                0x00003d9c                bb_addIntAsString
 .text.bb_insert
                0x00003dc8       0x8c dlms\src\bytebuffer.o
                0x00003dc8                bb_insert
 .text.bb_move  0x00003e54       0xe8 dlms\src\bytebuffer.o
                0x00003e54                bb_move
 .text.bb_trim  0x00003f3c       0x50 dlms\src\bytebuffer.o
                0x00003f3c                bb_trim
 .text.bb_compare
                0x00003f8c       0x64 dlms\src\bytebuffer.o
                0x00003f8c                bb_compare
 .text.bb_get   0x00003ff0       0x60 dlms\src\bytebuffer.o
                0x00003ff0                bb_get
 .text.cip_init
                0x00004050       0x7c dlms\src\ciphering.o
                0x00004050                cip_init
 .text.cip_getAuthenticatedData
                0x000040cc       0xa0 dlms\src\ciphering.o
                0x000040cc                cip_getAuthenticatedData
 .text.cip_getNonse
                0x0000416c       0x68 dlms\src\ciphering.o
 .text.cip_int  0x000041d4      0x4dc dlms\src\ciphering.o
                0x000041d4                cip_int
 .text.aes_encrypt
                0x000046b0      0x51c dlms\src\ciphering.o
                0x000046b0                aes_encrypt
 .text.cip_xor  0x00004bcc       0x44 dlms\src\ciphering.o
 .text.shift_right_block
                0x00004c10      0x1b8 dlms\src\ciphering.o
 .text.cip_multiplyH
                0x00004dc8       0xa8 dlms\src\ciphering.o
 .text.cip_getGHash
                0x00004e70       0xd4 dlms\src\ciphering.o
 .text.cip_init_j0
                0x00004f44       0xc4 dlms\src\ciphering.o
 .text.cip_inc32
                0x00005008       0x6c dlms\src\ciphering.o
 .text.cip_gctr
                0x00005074       0xe8 dlms\src\ciphering.o
 .text.aes_gcm_gctr
                0x0000515c       0x4c dlms\src\ciphering.o
 .text.aes_gcm_ghash
                0x000051a8       0xac dlms\src\ciphering.o
 .text.cip_encrypt
                0x00005254      0x4dc dlms\src\ciphering.o
                0x00005254                cip_encrypt
 .text.cip_decrypt
                0x00005730      0x328 dlms\src\ciphering.o
                0x00005730                cip_decrypt
 .text.cosem_getObjectSize
                0x00005a58      0x330 dlms\src\cosem.o
                0x00005a58                cosem_getObjectSize
 .text.cosem_createObject
                0x00005d88       0x9c dlms\src\cosem.o
                0x00005d88                cosem_createObject
 .text.cosem_setLogicalName
                0x00005e24       0x24 dlms\src\cosem.o
                0x00005e24                cosem_setLogicalName
 .text.cosem_init2
                0x00005e48      0x314 dlms\src\cosem.o
                0x00005e48                cosem_init2
 .text.di_init  0x0000615c       0x2c dlms\src\datainfo.o
                0x0000615c                di_init
 .text.time_getUtcOffset
                0x00006188       0x60 dlms\src\date.o
                0x00006188                time_getUtcOffset
 .text.time_init
                0x000061e8      0x1a4 dlms\src\date.o
                0x000061e8                time_init
 .text.time_init2
                0x0000638c       0x78 dlms\src\date.o
                0x0000638c                time_init2
 .text.time_init4
                0x00006404       0x48 dlms\src\date.o
                0x00006404                time_init4
 .text.time_clear
                0x0000644c       0x40 dlms\src\date.o
                0x0000644c                time_clear
 .text.date_daysInMonth
                0x0000648c       0xc8 dlms\src\date.o
                0x0000648c                date_daysInMonth
 .text.getDateFormat
                0x00006554       0x24 dlms\src\date.o
                0x00006554                getDateFormat
 .text.time_toString
                0x00006578      0x3dc dlms\src\date.o
                0x00006578                time_toString
 .text.time_copy
                0x00006954       0x60 dlms\src\date.o
                0x00006954                time_copy
 .text.time_addTime
                0x000069b4       0x3c dlms\src\date.o
                0x000069b4                time_addTime
 .text.time_compare
                0x000069f0       0xa0 dlms\src\date.o
                0x000069f0                time_compare
 .text.time_fromUnixTime
                0x00006a90       0x30 dlms\src\date.o
                0x00006a90                time_fromUnixTime
 .text.countCRC
                0x00006ac0       0x80 dlms\src\dlms.o
 .text.dlms_getGloMessage
                0x00006b40      0x1ac dlms\src\dlms.o
                0x00006b40                dlms_getGloMessage
 .text.dlms_getInvokeIDPriority
                0x00006cec       0x48 dlms\src\dlms.o
                0x00006cec                dlms_getInvokeIDPriority
 .text.dlms_getLongInvokeIDPriority
                0x00006d34       0x54 dlms\src\dlms.o
                0x00006d34                dlms_getLongInvokeIDPriority
 .text.dlms_setData
                0x00006d88       0x3c dlms\src\dlms.o
                0x00006d88                dlms_setData
 .text.getCount
                0x00006dc4       0x6c dlms\src\dlms.o
                0x00006dc4                getCount
 .text.getArray
                0x00006e30      0x108 dlms\src\dlms.o
                0x00006e30                getArray
 .text.getUInt32
                0x00006f38       0x50 dlms\src\dlms.o
                0x00006f38                getUInt32
 .text.getInt32
                0x00006f88       0x50 dlms\src\dlms.o
                0x00006f88                getInt32
 .text.getBitString
                0x00006fd8       0xdc dlms\src\dlms.o
 .text.getBool  0x000070b4       0x60 dlms\src\dlms.o
 .text.getString
                0x00007114       0xa8 dlms\src\dlms.o
                0x00007114                getString
 .text.getUtfString
                0x000071bc       0xbc dlms\src\dlms.o
                0x000071bc                getUtfString
 .text.getOctetString
                0x00007278       0x94 dlms\src\dlms.o
                0x00007278                getOctetString
 .text.getBcd   0x0000730c       0xec dlms\src\dlms.o
                0x0000730c                getBcd
 .text.getUInt8
                0x000073f8       0x50 dlms\src\dlms.o
                0x000073f8                getUInt8
 .text.getInt16
                0x00007448       0x50 dlms\src\dlms.o
                0x00007448                getInt16
 .text.getInt8  0x00007498       0x50 dlms\src\dlms.o
                0x00007498                getInt8
 .text.getUInt16
                0x000074e8       0x50 dlms\src\dlms.o
                0x000074e8                getUInt16
 .text.getInt64
                0x00007538       0x50 dlms\src\dlms.o
                0x00007538                getInt64
 .text.getUInt64
                0x00007588       0x50 dlms\src\dlms.o
                0x00007588                getUInt64
 .text.getEnum  0x000075d8       0x50 dlms\src\dlms.o
                0x000075d8                getEnum
 .text.getDouble
                0x00007628       0x50 dlms\src\dlms.o
                0x00007628                getDouble
 .text.getFloat
                0x00007678       0x50 dlms\src\dlms.o
                0x00007678                getFloat
 .text.getTime  0x000076c8       0xf8 dlms\src\dlms.o
                0x000076c8                getTime
 .text.getDate  0x000077c0       0xdc dlms\src\dlms.o
                0x000077c0                getDate
 .text.getDateTime
                0x0000789c      0x364 dlms\src\dlms.o
                0x0000789c                getDateTime
 .text.dlms_getData
                0x00007c00      0x268 dlms\src\dlms.o
                0x00007c00                dlms_getData
 .text.dlms_checkLLCBytes
                0x00007e68       0x74 dlms\src\dlms.o
                0x00007e68                dlms_checkLLCBytes
 .text.dlms_getHDLCAddress
                0x00007edc      0x128 dlms\src\dlms.o
                0x00007edc                dlms_getHDLCAddress
 .text.dlms_checkHdlcAddress
                0x00008004      0x130 dlms\src\dlms.o
                0x00008004                dlms_checkHdlcAddress
 .text.dlms_getAddress
                0x00008134       0xbc dlms\src\dlms.o
                0x00008134                dlms_getAddress
 .text.dlms_getAddressBytes
                0x000081f0       0x70 dlms\src\dlms.o
                0x000081f0                dlms_getAddressBytes
 .text.dlms_getHdlcFrame
                0x00008260      0x338 dlms\src\dlms.o
                0x00008260                dlms_getHdlcFrame
 .text.dlms_getDataFromFrame
                0x00008598       0x64 dlms\src\dlms.o
                0x00008598                dlms_getDataFromFrame
 .text.dlms_getHdlcData
                0x000085fc      0x520 dlms\src\dlms.o
                0x000085fc                dlms_getHdlcData
 .text.dlms_checkWrapperAddress
                0x00008b1c       0xf8 dlms\src\dlms.o
                0x00008b1c                dlms_checkWrapperAddress
 .text.dlms_getTcpData
                0x00008c14       0xe0 dlms\src\dlms.o
                0x00008c14                dlms_getTcpData
 .text.dlms_getDataFromBlock
                0x00008cf4       0x6c dlms\src\dlms.o
                0x00008cf4                dlms_getDataFromBlock
 .text.dlms_getWrapperFrame
                0x00008d60      0x120 dlms\src\dlms.o
                0x00008d60                dlms_getWrapperFrame
 .text.dlms_handleGetResponse
                0x00008e80      0x240 dlms\src\dlms.o
                0x00008e80                dlms_handleGetResponse
 .text.dlms_handleWriteResponse
                0x000090c0       0x84 dlms\src\dlms.o
                0x000090c0                dlms_handleWriteResponse
 .text.dlms_getValueFromData
                0x00009144      0x160 dlms\src\dlms.o
                0x00009144                dlms_getValueFromData
 .text.dlms_readResponseDataBlockResult
                0x000092a4      0x11c dlms\src\dlms.o
                0x000092a4                dlms_readResponseDataBlockResult
 .text.dlms_handleReadResponse
                0x000093c0      0x268 dlms\src\dlms.o
                0x000093c0                dlms_handleReadResponse
 .text.dlms_handleMethodResponse
                0x00009628      0x13c dlms\src\dlms.o
                0x00009628                dlms_handleMethodResponse
 .text.dlms_handleSetResponse
                0x00009764       0xa8 dlms\src\dlms.o
                0x00009764                dlms_handleSetResponse
 .text.dlms_changeType2
                0x0000980c       0x48 dlms\src\dlms.o
                0x0000980c                dlms_changeType2
 .text.dlms_changeType
                0x00009854      0x100 dlms\src\dlms.o
                0x00009854                dlms_changeType
 .text.dlms_handleDataNotification
                0x00009954       0xe0 dlms\src\dlms.o
                0x00009954                dlms_handleDataNotification
 .text.dlms_handleGbt
                0x00009a34      0x1d0 dlms\src\dlms.o
                0x00009a34                dlms_handleGbt
 .text.dlms_handledGloDedRequest
                0x00009c04      0x194 dlms\src\dlms.o
                0x00009c04                dlms_handledGloDedRequest
 .text.dlms_handledGloDedResponse
                0x00009d98      0x13c dlms\src\dlms.o
                0x00009d98                dlms_handledGloDedResponse
 .text.dlms_handleGeneralCiphering
                0x00009ed4       0x98 dlms\src\dlms.o
                0x00009ed4                dlms_handleGeneralCiphering
 .text.dlms_getPdu
                0x00009f6c      0x5f8 dlms\src\dlms.o
                0x00009f6c                dlms_getPdu
 .text.dlms_addLLCBytes
                0x0000a564       0x3c dlms\src\dlms.o
                0x0000a564                dlms_addLLCBytes
 .text.dlms_appendMultipleSNBlocks
                0x0000a5a0      0x128 dlms\src\dlms.o
                0x0000a5a0                dlms_appendMultipleSNBlocks
 .text.dlms_getSNPdu
                0x0000a6c8      0x41c dlms\src\dlms.o
                0x0000a6c8                dlms_getSNPdu
 .text.dlms_multipleBlocks
                0x0000aae4       0xf8 dlms\src\dlms.o
                0x0000aae4                dlms_multipleBlocks
 .text.dlms_getLNPdu
                0x0000abdc      0x654 dlms\src\dlms.o
                0x0000abdc                dlms_getLNPdu
 .text.dlms_getData2
                0x0000b230       0xe8 dlms\src\dlms.o
                0x0000b230                dlms_getData2
 .text.dlms_generateChallenge
                0x0000b318       0x40 dlms\src\dlms.o
                0x0000b318                dlms_generateChallenge
 .text.dlms_getActionInfo
                0x0000b358      0x2d8 dlms\src\dlms.o
                0x0000b358                dlms_getActionInfo
 .text.dlms_secure
                0x0000b630      0x234 dlms\src\dlms.o
                0x0000b630                dlms_secure
 .text.dlms_parseSnrmUaResponse
                0x0000b864      0x1c0 dlms\src\dlms.o
                0x0000b864                dlms_parseSnrmUaResponse
 .text.dlms_appendHdlcParameter
                0x0000ba24       0x44 dlms\src\dlms.o
                0x0000ba24                dlms_appendHdlcParameter
 .text.svr_init
                0x0000ba68       0xd0 dlms\src\dlmsSettings.o
                0x0000ba68                svr_init
 .text.cl_init  0x0000bb38      0x180 dlms\src\dlmsSettings.o
                0x0000bb38                cl_init
 .text.resetBlockIndex
                0x0000bcb8       0x1c dlms\src\dlmsSettings.o
                0x0000bcb8                resetBlockIndex
 .text.resetFrameSequence
                0x0000bcd4       0x40 dlms\src\dlmsSettings.o
                0x0000bcd4                resetFrameSequence
 .text.increaseReceiverSequence
                0x0000bd14       0x34 dlms\src\dlmsSettings.o
                0x0000bd14                increaseReceiverSequence
 .text.increaseSendSequence
                0x0000bd48       0x34 dlms\src\dlmsSettings.o
                0x0000bd48                increaseSendSequence
 .text.checkFrame
                0x0000bd7c      0x120 dlms\src\dlmsSettings.o
                0x0000bd7c                checkFrame
 .text.getNextSend
                0x0000be9c       0x58 dlms\src\dlmsSettings.o
                0x0000be9c                getNextSend
 .text.getReceiverReady
                0x0000bef4       0x38 dlms\src\dlmsSettings.o
                0x0000bef4                getReceiverReady
 .text.getKeepAlive
                0x0000bf2c       0x30 dlms\src\dlmsSettings.o
                0x0000bf2c                getKeepAlive
 .text.isCiphered
                0x0000bf5c       0x20 dlms\src\dlmsSettings.o
                0x0000bf5c                isCiphered
 .text.trans_init
                0x0000bf7c       0x2c dlms\src\dlmsSettings.o
                0x0000bf7c                trans_init
 .text.trans_clear
                0x0000bfa8       0x2c dlms\src\dlmsSettings.o
                0x0000bfa8                trans_clear
 .text.updateInvokeId
                0x0000bfd4       0x5c dlms\src\dlmsSettings.o
                0x0000bfd4                updateInvokeId
 .text.getSBoxValue
                0x0000c030       0x20 dlms\src\gxaes.o
 .text.KeyExpansion
                0x0000c050      0x1b8 dlms\src\gxaes.o
 .text.AddRoundKey
                0x0000c208       0x78 dlms\src\gxaes.o
 .text.SubBytes
                0x0000c280       0x60 dlms\src\gxaes.o
 .text.ShiftRows
                0x0000c2e0       0xb4 dlms\src\gxaes.o
 .text.xtime    0x0000c394       0x3c dlms\src\gxaes.o
 .text.MixColumns
                0x0000c3d0      0x194 dlms\src\gxaes.o
 .text.Cipher   0x0000c564       0x4c dlms\src\gxaes.o
 .text.gxaes_ecb_encrypt
                0x0000c5b0       0x3c dlms\src\gxaes.o
                0x0000c5b0                gxaes_ecb_encrypt
 .text.arr_init
                0x0000c5ec       0x2c dlms\src\gxarray.o
                0x0000c5ec                arr_init
 .text.arr_capacity
                0x0000c618       0x68 dlms\src\gxarray.o
                0x0000c618                arr_capacity
 .text.arr_push
                0x0000c680       0x90 dlms\src\gxarray.o
                0x0000c680                arr_push
 .text.arr_clear
                0x0000c710       0x6c dlms\src\gxarray.o
                0x0000c710                arr_clear
 .text.arr_empty
                0x0000c77c       0x3c dlms\src\gxarray.o
                0x0000c77c                arr_empty
 .text.arr_get  0x0000c7b8       0x44 dlms\src\gxarray.o
                0x0000c7b8                arr_get
 .text.arr_getByIndex
                0x0000c7fc       0x3c dlms\src\gxarray.o
                0x0000c7fc                arr_getByIndex
 .text.arr_clearKeyValuePair
                0x0000c838       0x7c dlms\src\gxarray.o
                0x0000c838                arr_clearKeyValuePair
 .text.arr_clearStrings
                0x0000c8b4       0x70 dlms\src\gxarray.o
                0x0000c8b4                arr_clearStrings
 .text.arr_removeByIndex
                0x0000c924       0x80 dlms\src\gxarray.o
                0x0000c924                arr_removeByIndex
 .text.cosem_getByteBuffer
                0x0000c9a4       0x48 dlms\src\gxget.o
                0x0000c9a4                cosem_getByteBuffer
 .text.cosem_getData
                0x0000c9ec       0x38 dlms\src\gxget.o
                0x0000c9ec                cosem_getData
 .text.cosem_getRegister
                0x0000ca24       0xd4 dlms\src\gxget.o
                0x0000ca24                cosem_getRegister
 .text.cosem_getRegisterTable
                0x0000caf8       0xc8 dlms\src\gxget.o
                0x0000caf8                cosem_getRegisterTable
 .text.cosem_getClock
                0x0000cbc0      0x100 dlms\src\gxget.o
                0x0000cbc0                cosem_getClock
 .text.cosem_getActionSchedule
                0x0000ccc0      0x210 dlms\src\gxget.o
                0x0000ccc0                cosem_getActionSchedule
 .text.getActivityCalendarDayProfileTable
                0x0000ced0      0x1e8 dlms\src\gxget.o
                0x0000ced0                getActivityCalendarDayProfileTable
 .text.getActivityCalendarWeekProfileTable
                0x0000d0b8      0x1e0 dlms\src\gxget.o
                0x0000d0b8                getActivityCalendarWeekProfileTable
 .text.getActivityCalendarSeasonProfile
                0x0000d298      0x190 dlms\src\gxget.o
                0x0000d298                getActivityCalendarSeasonProfile
 .text.getActivityCalendarName
                0x0000d428       0x54 dlms\src\gxget.o
                0x0000d428                getActivityCalendarName
 .text.cosem_getActivityCalendar
                0x0000d47c      0x15c dlms\src\gxget.o
                0x0000d47c                cosem_getActivityCalendar
 .text.getLNAccessRights
                0x0000d5d8      0x1c0 dlms\src\gxget.o
                0x0000d5d8                getLNAccessRights
 .text.dlms_isPduFull
                0x0000d798       0x6c dlms\src\gxget.o
                0x0000d798                dlms_isPduFull
 .text.getLNObjects
                0x0000d804      0x1c0 dlms\src\gxget.o
                0x0000d804                getLNObjects
 .text.getUserList
                0x0000d9c4      0x154 dlms\src\gxget.o
                0x0000d9c4                getUserList
 .text.cosem_getAssociationLogicalName
                0x0000db18      0x658 dlms\src\gxget.o
                0x0000db18                cosem_getAssociationLogicalName
 .text.getSNObjects
                0x0000e170      0x1c0 dlms\src\gxget.o
                0x0000e170                getSNObjects
 .text.getSNAccessRights
                0x0000e330      0x1cc dlms\src\gxget.o
                0x0000e330                getSNAccessRights
 .text.cosem_getAssociationShortName
                0x0000e4fc      0x138 dlms\src\gxget.o
                0x0000e4fc                cosem_getAssociationShortName
 .text.cosem_getAutoAnswer
                0x0000e634      0x25c dlms\src\gxget.o
                0x0000e634                cosem_getAutoAnswer
 .text.cosem_getAutoConnect
                0x0000e890      0x274 dlms\src\gxget.o
                0x0000e890                cosem_getAutoConnect
 .text.cosem_getDemandRegister
                0x0000eb04      0x1d8 dlms\src\gxget.o
                0x0000eb04                cosem_getDemandRegister
 .text.cosem_getMacAddressSetup
                0x0000ecdc       0x3c dlms\src\gxget.o
                0x0000ecdc                cosem_getMacAddressSetup
 .text.cosem_getExtendedRegister
                0x0000ed18      0x15c dlms\src\gxget.o
                0x0000ed18                cosem_getExtendedRegister
 .text.cosem_getQualityOfService
                0x0000ee74       0xdc dlms\src\gxget.o
                0x0000ee74                cosem_getQualityOfService
 .text.cosem_getGprsSetup
                0x0000ef50       0xfc dlms\src\gxget.o
                0x0000ef50                cosem_getGprsSetup
 .text.cosem_getSecuritySetup
                0x0000f04c      0x2b0 dlms\src\gxget.o
                0x0000f04c                cosem_getSecuritySetup
 .text.cosem_getIecHdlcSetup
                0x0000f2fc       0xe4 dlms\src\gxget.o
                0x0000f2fc                cosem_getIecHdlcSetup
 .text.cosem_getIecLocalPortSetup
                0x0000f3e0       0xf8 dlms\src\gxget.o
                0x0000f3e0                cosem_getIecLocalPortSetup
 .text.cosem_getIP4Setup
                0x0000f4d8      0x2c4 dlms\src\gxget.o
                0x0000f4d8                cosem_getIP4Setup
 .text.cosem_getMbusSlavePortSetup
                0x0000f79c       0x88 dlms\src\gxget.o
                0x0000f79c                cosem_getMbusSlavePortSetup
 .text.cosem_getImageTransfer
                0x0000f824      0x29c dlms\src\gxget.o
                0x0000f824                cosem_getImageTransfer
 .text.getColumns
                0x0000fac0      0x1d8 dlms\src\gxget.o
                0x0000fac0                getColumns
 .text.getSelectedColumns
                0x0000fc98      0x170 dlms\src\gxget.o
                0x0000fc98                getSelectedColumns
 .text.cosem_getColumns
                0x0000fe08      0x1a4 dlms\src\gxget.o
                0x0000fe08                cosem_getColumns
 .text.cosem_getRow
                0x0000ffac      0x11c dlms\src\gxget.o
                0x0000ffac                cosem_getRow
 .text.profileGeneric_getData
                0x000100c8      0x16c dlms\src\gxget.o
                0x000100c8                profileGeneric_getData
 .text.getProfileGenericData
                0x00010234      0x550 dlms\src\gxget.o
                0x00010234                getProfileGenericData
 .text.cosem_getProfileGeneric
                0x00010784      0x2b4 dlms\src\gxget.o
                0x00010784                cosem_getProfileGeneric
 .text.cosem_getDisconnectControl
                0x00010a38       0x70 dlms\src\gxget.o
                0x00010a38                cosem_getDisconnectControl
 .text.cosem_getLimiter
                0x00010aa8      0x520 dlms\src\gxget.o
                0x00010aa8                cosem_getLimiter
 .text.cosem_getmMbusClient
                0x00010fc8      0x28c dlms\src\gxget.o
                0x00010fc8                cosem_getmMbusClient
 .text.cosem_getModemConfiguration
                0x00011254      0x25c dlms\src\gxget.o
                0x00011254                cosem_getModemConfiguration
 .text.cosem_getPppSetup
                0x000114b0      0x344 dlms\src\gxget.o
                0x000114b0                cosem_getPppSetup
 .text.cosem_getRegisterActivation
                0x000117f4      0x320 dlms\src\gxget.o
                0x000117f4                cosem_getRegisterActivation
 .text.cosem_getRegisterMonitor
                0x00011b14      0x2e8 dlms\src\gxget.o
                0x00011b14                cosem_getRegisterMonitor
 .text.cosem_getSapAssignment
                0x00011dfc      0x134 dlms\src\gxget.o
                0x00011dfc                cosem_getSapAssignment
 .text.cosem_getSchedule
                0x00011f30      0x328 dlms\src\gxget.o
                0x00011f30                cosem_getSchedule
 .text.cosem_getScriptTable
                0x00012258      0x234 dlms\src\gxget.o
                0x00012258                cosem_getScriptTable
 .text.cosem_getSpecialDaysTable
                0x0001248c      0x160 dlms\src\gxget.o
                0x0001248c                cosem_getSpecialDaysTable
 .text.cosem_getTcpUdpSetup
                0x000125ec       0xa4 dlms\src\gxget.o
                0x000125ec                cosem_getTcpUdpSetup
 .text.cosem_getMbusMasterPortSetup
                0x00012690       0x38 dlms\src\gxget.o
                0x00012690                cosem_getMbusMasterPortSetup
 .text.cosem_getMessageHandler
                0x000126c8      0x260 dlms\src\gxget.o
                0x000126c8                cosem_getMessageHandler
 .text.cosem_getPushSetup
                0x00012928      0x434 dlms\src\gxget.o
                0x00012928                cosem_getPushSetup
 .text.cosem_getZigbeeNetworkControl
                0x00012d5c      0x3a8 dlms\src\gxget.o
                0x00012d5c                cosem_getZigbeeNetworkControl
 .text.getUnitCharge
                0x00013104      0x254 dlms\src\gxget.o
                0x00013104                getUnitCharge
 .text.cosem_getCharge
                0x00013358      0x1d8 dlms\src\gxget.o
                0x00013358                cosem_getCharge
 .text.cosem_getTokenGateway
                0x00013530      0x240 dlms\src\gxget.o
                0x00013530                cosem_getTokenGateway
 .text.cosem_getCredit
                0x00013770      0x188 dlms\src\gxget.o
                0x00013770                cosem_getCredit
 .text.cosem_getAccount
                0x000138f8      0x788 dlms\src\gxget.o
                0x000138f8                cosem_getAccount
 .text.cosem_getCompactData
                0x00014080      0x13c dlms\src\gxget.o
                0x00014080                cosem_getCompactData
 .text.cosem_getValue
                0x000141bc      0x424 dlms\src\gxget.o
                0x000141bc                cosem_getValue
 .text.cosem_getGsmDiagnostic
                0x000145e0      0x394 dlms\src\gxget.o
                0x000145e0                cosem_getGsmDiagnostic
 .text.invoke_Charge
                0x00014974      0x110 dlms\src\gxinvoke.o
                0x00014974                invoke_Charge
 .text.invoke_Credit
                0x00014a84       0x6c dlms\src\gxinvoke.o
                0x00014a84                invoke_Credit
 .text.invoke_gxTokenGateway
                0x00014af0       0x54 dlms\src\gxinvoke.o
                0x00014af0                invoke_gxTokenGateway
 .text.invoke_AssociationLogicalName
                0x00014b44      0x364 dlms\src\gxinvoke.o
                0x00014b44                invoke_AssociationLogicalName
 .text.invoke_ImageTransfer
                0x00014ea8      0x228 dlms\src\gxinvoke.o
                0x00014ea8                invoke_ImageTransfer
 .text.invoke_SapAssigment
                0x000150d0      0x134 dlms\src\gxinvoke.o
                0x000150d0                invoke_SapAssigment
 .text.invoke_AssociationShortName
                0x00015204      0x150 dlms\src\gxinvoke.o
                0x00015204                invoke_AssociationShortName
 .text.invoke_ScriptTable
                0x00015354       0xb4 dlms\src\gxinvoke.o
                0x00015354                invoke_ScriptTable
 .text.invoke_zigbeeNetworkControl
                0x00015408      0x120 dlms\src\gxinvoke.o
                0x00015408                invoke_zigbeeNetworkControl
 .text.invoke_ExtendedRegister
                0x00015528       0x4c dlms\src\gxinvoke.o
                0x00015528                invoke_ExtendedRegister
 .text.invoke_Clock
                0x00015574      0x180 dlms\src\gxinvoke.o
                0x00015574                invoke_Clock
 .text.invoke_Register
                0x000156f4       0x34 dlms\src\gxinvoke.o
                0x000156f4                invoke_Register
 .text.capture  0x00015728      0x150 dlms\src\gxinvoke.o
                0x00015728                capture
 .text.invoke_ProfileGeneric
                0x00015878       0x48 dlms\src\gxinvoke.o
                0x00015878                invoke_ProfileGeneric
 .text.compactDataAppend
                0x000158c0       0x68 dlms\src\gxinvoke.o
                0x000158c0                compactDataAppend
 .text.compactDataAppendArray
                0x00015928       0xc8 dlms\src\gxinvoke.o
                0x00015928                compactDataAppendArray
 .text.cosem_captureCompactData
                0x000159f0      0x1cc dlms\src\gxinvoke.o
                0x000159f0                cosem_captureCompactData
 .text.invoke_CompactData
                0x00015bbc       0x4c dlms\src\gxinvoke.o
                0x00015bbc                invoke_CompactData
 .text.cosem_invoke
                0x00015c08      0x314 dlms\src\gxinvoke.o
                0x00015c08                cosem_invoke
 .text.key_init
                0x00015f1c       0x2c dlms\src\gxkey.o
                0x00015f1c                key_init
 .text.gxmd5_F  0x00015f48       0x28 dlms\src\gxmd5.o
                0x00015f48                gxmd5_F
 .text.gxmd5_G  0x00015f70       0x28 dlms\src\gxmd5.o
                0x00015f70                gxmd5_G
 .text.gxmd5_H  0x00015f98       0x20 dlms\src\gxmd5.o
                0x00015f98                gxmd5_H
 .text.gxmd5_I  0x00015fb8       0x24 dlms\src\gxmd5.o
                0x00015fb8                gxmd5_I
 .text.gxmd5_rotate_left
                0x00015fdc       0x20 dlms\src\gxmd5.o
                0x00015fdc                gxmd5_rotate_left
 .text.gxmd5_FF
                0x00015ffc       0x44 dlms\src\gxmd5.o
                0x00015ffc                gxmd5_FF
 .text.gxmd5_GG
                0x00016040       0x44 dlms\src\gxmd5.o
                0x00016040                gxmd5_GG
 .text.gxmd5_HH
                0x00016084       0x44 dlms\src\gxmd5.o
                0x00016084                gxmd5_HH
 .text.gxmd5_II
                0x000160c8       0x44 dlms\src\gxmd5.o
                0x000160c8                gxmd5_II
 .text.gxmd5_decode
                0x0001610c       0x74 dlms\src\gxmd5.o
                0x0001610c                gxmd5_decode
 .text.gxmd5_encode
                0x00016180       0x9c dlms\src\gxmd5.o
                0x00016180                gxmd5_encode
 .text.gxmd5_transform
                0x0001621c      0x8fc dlms\src\gxmd5.o
                0x0001621c                gxmd5_transform
 .text.gxmd5_update
                0x00016b18       0xcc dlms\src\gxmd5.o
                0x00016b18                gxmd5_update
 .text.gxmd5_encrypt
                0x00016be4       0xd0 dlms\src\gxmd5.o
                0x00016be4                gxmd5_encrypt
 .text.obj_clearProfileGenericBuffer
                0x00016cb4       0x54 dlms\src\gxobjects.o
                0x00016cb4                obj_clearProfileGenericBuffer
 .text.obj_clearPushObjectList
                0x00016d08       0x54 dlms\src\gxobjects.o
                0x00016d08                obj_clearPushObjectList
 .text.obj_clearCreditChargeConfigurations
                0x00016d5c       0x6c dlms\src\gxobjects.o
                0x00016d5c                obj_clearCreditChargeConfigurations
 .text.obj_clearTokenGatewayConfigurations
                0x00016dc8       0x58 dlms\src\gxobjects.o
                0x00016dc8                obj_clearTokenGatewayConfigurations
 .text.obj_clearSapList
                0x00016e20       0x58 dlms\src\gxobjects.o
                0x00016e20                obj_clearSapList
 .text.obj_clearProfileGenericCaptureObjects
                0x00016e78       0x58 dlms\src\gxobjects.o
                0x00016e78                obj_clearProfileGenericCaptureObjects
 .text.obj_clearSeasonProfile
                0x00016ed0       0x60 dlms\src\gxobjects.o
                0x00016ed0                obj_clearSeasonProfile
 .text.obj_clearWeekProfileTable
                0x00016f30       0x58 dlms\src\gxobjects.o
                0x00016f30                obj_clearWeekProfileTable
 .text.obj_clearDayProfileTable
                0x00016f88       0x8c dlms\src\gxobjects.o
                0x00016f88                obj_clearDayProfileTable
 .text.obj_clearRegisterMonitorActions
                0x00017014       0x18 dlms\src\gxobjects.o
                0x00017014                obj_clearRegisterMonitorActions
 .text.obj_clearModemConfigurationInitialisationStrings
                0x0001702c       0x60 dlms\src\gxobjects.o
                0x0001702c                obj_clearModemConfigurationInitialisationStrings
 .text.obj_clearScriptTable
                0x0001708c       0x98 dlms\src\gxobjects.o
                0x0001708c                obj_clearScriptTable
 .text.obj_clearRegisterActivationAssignment
                0x00017124       0x18 dlms\src\gxobjects.o
                0x00017124                obj_clearRegisterActivationAssignment
 .text.obj_clearRegisterActivationMaskList
                0x0001713c       0x64 dlms\src\gxobjects.o
                0x0001713c                obj_clearRegisterActivationMaskList
 .text.obj_clearIP4SetupOptions
                0x000171a0       0x58 dlms\src\gxobjects.o
                0x000171a0                obj_clearIP4SetupOptions
 .text.obj_clearPPPSetupIPCPOptions
                0x000171f8       0x58 dlms\src\gxobjects.o
                0x000171f8                obj_clearPPPSetupIPCPOptions
 .text.obj_clearPPPSetupLCPOptions
                0x00017250       0x58 dlms\src\gxobjects.o
                0x00017250                obj_clearPPPSetupLCPOptions
 .text.obj_clearActiveDevices
                0x000172a8       0x60 dlms\src\gxobjects.o
                0x000172a8                obj_clearActiveDevices
 .text.obj_clearChargeTables
                0x00017308       0x58 dlms\src\gxobjects.o
                0x00017308                obj_clearChargeTables
 .text.obj_clearUserList
                0x00017360       0x58 dlms\src\gxobjects.o
                0x00017360                obj_clearUserList
 .text.obj_clearCertificateInfo
                0x000173b8       0x70 dlms\src\gxobjects.o
                0x000173b8                obj_clearCertificateInfo
 .text.obj_clear
                0x00017428      0x66c dlms\src\gxobjects.o
                0x00017428                obj_clear
 .text.obj_attributeCount
                0x00017a94      0x2e8 dlms\src\gxobjects.o
                0x00017a94                obj_attributeCount
 .text.obj_methodCount
                0x00017d7c      0x2cc dlms\src\gxobjects.o
                0x00017d7c                obj_methodCount
 .text.obj_updateAttributeAccessModes
                0x00018048      0x238 dlms\src\gxobjects.o
                0x00018048                obj_updateAttributeAccessModes
 .text.cosem_setData
                0x00018280       0x30 dlms\src\gxset.o
                0x00018280                cosem_setData
 .text.cosem_setRegister
                0x000182b0       0xac dlms\src\gxset.o
                0x000182b0                cosem_setRegister
 .text.cosem_setRegistertable
                0x0001835c       0xa0 dlms\src\gxset.o
                0x0001835c                cosem_setRegistertable
 .text.cosem_setClock
                0x000183fc      0x1b0 dlms\src\gxset.o
                0x000183fc                cosem_setClock
 .text.updateSeasonProfile
                0x000185ac      0x160 dlms\src\gxset.o
                0x000185ac                updateSeasonProfile
 .text.updateWeekProfileTable
                0x0001870c      0x20c dlms\src\gxset.o
                0x0001870c                updateWeekProfileTable
 .text.updateDayProfileTableActive
                0x00018918      0x204 dlms\src\gxset.o
                0x00018918                updateDayProfileTableActive
 .text.cosem_setActivityCalendar
                0x00018b1c      0x190 dlms\src\gxset.o
                0x00018b1c                cosem_setActivityCalendar
 .text.cosem_setActionSchedule
                0x00018cac      0x1c8 dlms\src\gxset.o
                0x00018cac                cosem_setActionSchedule
 .text.cosem_setAssociationLogicalName
                0x00018e74      0xdf4 dlms\src\gxset.o
                0x00018e74                cosem_setAssociationLogicalName
 .text.updateSNAccessRights
                0x00019c68       0xac dlms\src\gxset.o
                0x00019c68                updateSNAccessRights
 .text.cosem_setAssociationShortName
                0x00019d14      0x1d0 dlms\src\gxset.o
                0x00019d14                cosem_setAssociationShortName
 .text.cosem_setAutoAnswer
                0x00019ee4      0x1f0 dlms\src\gxset.o
                0x00019ee4                cosem_setAutoAnswer
 .text.cosem_setAutoConnect
                0x0001a0d4      0x228 dlms\src\gxset.o
                0x0001a0d4                cosem_setAutoConnect
 .text.cosem_setDemandRegister
                0x0001a2fc      0x264 dlms\src\gxset.o
                0x0001a2fc                cosem_setDemandRegister
 .text.cosem_setMacAddressSetup
                0x0001a560       0x50 dlms\src\gxset.o
                0x0001a560                cosem_setMacAddressSetup
 .text.cosem_setExtendedRegister
                0x0001a5b0      0x120 dlms\src\gxset.o
                0x0001a5b0                cosem_setExtendedRegister
 .text.cosem_setGprsSetup
                0x0001a6d0      0x28c dlms\src\gxset.o
                0x0001a6d0                cosem_setGprsSetup
 .text.cosem_setSecuritySetup
                0x0001a95c      0x3a0 dlms\src\gxset.o
                0x0001a95c                cosem_setSecuritySetup
 .text.cosem_setIecHdlcSetup
                0x0001acfc       0xd0 dlms\src\gxset.o
                0x0001acfc                cosem_setIecHdlcSetup
 .text.cosem_setIecLocalPortSetup
                0x0001adcc      0x148 dlms\src\gxset.o
                0x0001adcc                cosem_setIecLocalPortSetup
 .text.cosem_setIP4Setup
                0x0001af14      0x244 dlms\src\gxset.o
                0x0001af14                cosem_setIP4Setup
 .text.cosem_setMbusSlavePortSetup
                0x0001b158       0x78 dlms\src\gxset.o
                0x0001b158                cosem_setMbusSlavePortSetup
 .text.cosem_setDisconnectControl
                0x0001b1d0       0x5c dlms\src\gxset.o
                0x0001b1d0                cosem_setDisconnectControl
 .text.cosem_setLimiter
                0x0001b22c      0x378 dlms\src\gxset.o
                0x0001b22c                cosem_setLimiter
 .text.cosem_setmMbusClient
                0x0001b5a4      0x21c dlms\src\gxset.o
                0x0001b5a4                cosem_setmMbusClient
 .text.cosem_setModemConfiguration
                0x0001b7c0      0x1cc dlms\src\gxset.o
                0x0001b7c0                cosem_setModemConfiguration
 .text.cosem_setPppSetup
                0x0001b98c      0x30c dlms\src\gxset.o
                0x0001b98c                cosem_setPppSetup
 .text.cosem_setRegisterActivation
                0x0001bc98      0x234 dlms\src\gxset.o
                0x0001bc98                cosem_setRegisterActivation
 .text.cosem_setRegisterMonitor
                0x0001becc      0x2a8 dlms\src\gxset.o
                0x0001becc                cosem_setRegisterMonitor
 .text.cosem_setSapAssignment
                0x0001c174       0xf0 dlms\src\gxset.o
                0x0001c174                cosem_setSapAssignment
 .text.cosem_setSchedule
                0x0001c264      0x2c4 dlms\src\gxset.o
                0x0001c264                cosem_setSchedule
 .text.cosem_setScriptTable
                0x0001c528      0x3bc dlms\src\gxset.o
                0x0001c528                cosem_setScriptTable
 .text.cosem_setSpecialDaysTable
                0x0001c8e4      0x13c dlms\src\gxset.o
                0x0001c8e4                cosem_setSpecialDaysTable
 .text.cosem_setTcpUdpSetup
                0x0001ca20       0xac dlms\src\gxset.o
                0x0001ca20                cosem_setTcpUdpSetup
 .text.cosem_setMbusMasterPortSetup
                0x0001cacc       0x34 dlms\src\gxset.o
                0x0001cacc                cosem_setMbusMasterPortSetup
 .text.cosem_setMessageHandler
                0x0001cb00      0x1f8 dlms\src\gxset.o
                0x0001cb00                cosem_setMessageHandler
 .text.cosem_setPushSetup
                0x0001ccf8      0x3d8 dlms\src\gxset.o
                0x0001ccf8                cosem_setPushSetup
 .text.setUnitCharge
                0x0001d0d0      0x234 dlms\src\gxset.o
                0x0001d0d0                setUnitCharge
 .text.cosem_setCharge
                0x0001d304      0x1cc dlms\src\gxset.o
                0x0001d304                cosem_setCharge
 .text.cosem_setCredit
                0x0001d4d0      0x130 dlms\src\gxset.o
                0x0001d4d0                cosem_setCredit
 .text.cosem_setAccount
                0x0001d600      0x5f8 dlms\src\gxset.o
                0x0001d600                cosem_setAccount
 .text.cosem_setImageTransfer
                0x0001dbf8      0x1ec dlms\src\gxset.o
                0x0001dbf8                cosem_setImageTransfer
 .text.setCaptureObjects
                0x0001dde4      0x1ac dlms\src\gxset.o
                0x0001dde4                setCaptureObjects
 .text.cosem_setProfileGeneric
                0x0001df90      0x484 dlms\src\gxset.o
                0x0001df90                cosem_setProfileGeneric
 .text.cosem_setGsmDiagnostic
                0x0001e414      0x3d8 dlms\src\gxset.o
                0x0001e414                cosem_setGsmDiagnostic
 .text.cosem_setTokenGateway
                0x0001e7ec      0x1e8 dlms\src\gxset.o
                0x0001e7ec                cosem_setTokenGateway
 .text.compactData_updateTemplateDescription
                0x0001e9d4      0x540 dlms\src\gxset.o
                0x0001e9d4                compactData_updateTemplateDescription
 .text.cosem_setCompactData
                0x0001ef14      0x100 dlms\src\gxset.o
                0x0001ef14                cosem_setCompactData
 .text.cosem_setValue
                0x0001f014      0x588 dlms\src\gxset.o
                0x0001f014                cosem_setValue
 .text.gxsha1_transform
                0x0001f59c     0x185c dlms\src\gxsha1.o
                0x0001f59c                gxsha1_transform
 .text.gxsha1_update
                0x00020df8       0x58 dlms\src\gxsha1.o
                0x00020df8                gxsha1_update
 .text.gxsha1_final
                0x00020e50      0x128 dlms\src\gxsha1.o
                0x00020e50                gxsha1_final
 .text.gxsha1_encrypt
                0x00020f78       0x4c dlms\src\gxsha1.o
                0x00020f78                gxsha1_encrypt
 .text.gxsha256_transform
                0x00020fc4      0x358 dlms\src\gxsha256.o
                0x00020fc4                gxsha256_transform
 .text.gxsha256_update
                0x0002131c       0xcc dlms\src\gxsha256.o
                0x0002131c                gxsha256_update
 .text.gxsha256_final
                0x000213e8      0x118 dlms\src\gxsha256.o
                0x000213e8                gxsha256_final
 .text.gxsha256_encrypt
                0x00021500       0x80 dlms\src\gxsha256.o
                0x00021500                gxsha256_encrypt
 .text.vec_init
                0x00021580       0x2c dlms\src\gxvalueeventargs.o
                0x00021580                vec_init
 .text.vec_push
                0x000215ac       0x7c dlms\src\gxvalueeventargs.o
                0x000215ac                vec_push
 .text.vec_empty
                0x00021628       0x3c dlms\src\gxvalueeventargs.o
                0x00021628                vec_empty
 .text.vec_clear
                0x00021664       0x78 dlms\src\gxvalueeventargs.o
                0x00021664                vec_clear
 .text.vec_getByIndex
                0x000216dc       0x3c dlms\src\gxvalueeventargs.o
                0x000216dc                vec_getByIndex
 .text.ve_init  0x00021718       0x80 dlms\src\gxvalueeventargs.o
                0x00021718                ve_init
 .text.ve_clear
                0x00021798       0x80 dlms\src\gxvalueeventargs.o
                0x00021798                ve_clear
 .text.hlp_getObjectCountSizeInBytes
                0x00021818       0x34 dlms\src\helpers.o
                0x00021818                hlp_getObjectCountSizeInBytes
 .text.hlp_getObjectCount2
                0x0002184c       0x90 dlms\src\helpers.o
                0x0002184c                hlp_getObjectCount2
 .text.hlp_setObjectCount
                0x000218dc       0x94 dlms\src\helpers.o
                0x000218dc                hlp_setObjectCount
 .text.hlp_bytesToHex
                0x00021970       0xdc dlms\src\helpers.o
                0x00021970                hlp_bytesToHex
 .text.getValue
                0x00021a4c       0x38 dlms\src\helpers.o
                0x00021a4c                getValue
 .text.hlp_hexToBytes
                0x00021a84      0x160 dlms\src\helpers.o
                0x00021a84                hlp_hexToBytes
 .text.hlp_getScaler
                0x00021be4       0x20 dlms\src\helpers.o
                0x00021be4                hlp_getScaler
 .text.hlp_intToString
                0x00021c04       0xd8 dlms\src\helpers.o
                0x00021c04                hlp_intToString
 .text.hlp_stringToInt
                0x00021cdc       0x84 dlms\src\helpers.o
                0x00021cdc                hlp_stringToInt
 .text.hlp_int64ToString
                0x00021d60       0xf8 dlms\src\helpers.o
                0x00021d60                hlp_int64ToString
 .text.hlp_stringToInt64
                0x00021e58       0x98 dlms\src\helpers.o
                0x00021e58                hlp_stringToInt64
 .text.hlp_rand
                0x00021ef0       0x64 dlms\src\helpers.o
                0x00021ef0                hlp_rand
 .text.oa_init  0x00021f54       0x2c dlms\src\objectarray.o
                0x00021f54                oa_init
 .text.oa_isAttached
                0x00021f80       0x20 dlms\src\objectarray.o
                0x00021f80                oa_isAttached
 .text.oa_getCapacity
                0x00021fa0       0x1c dlms\src\objectarray.o
                0x00021fa0                oa_getCapacity
 .text.oa_capacity
                0x00021fbc       0x5c dlms\src\objectarray.o
                0x00021fbc                oa_capacity
 .text.oa_attach
                0x00022018       0x38 dlms\src\objectarray.o
                0x00022018                oa_attach
 .text.oa_push  0x00022050       0xa4 dlms\src\objectarray.o
                0x00022050                oa_push
 .text.oa_copy  0x000220f4       0x5c dlms\src\objectarray.o
                0x000220f4                oa_copy
 .text.oa_clear
                0x00022150       0xa8 dlms\src\objectarray.o
                0x00022150                oa_clear
 .text.oa_empty
                0x000221f8       0x48 dlms\src\objectarray.o
                0x000221f8                oa_empty
 .text.oa_getByIndex
                0x00022240       0x3c dlms\src\objectarray.o
                0x00022240                oa_getByIndex
 .text.oa_findBySN
                0x0002227c       0x6c dlms\src\objectarray.o
                0x0002227c                oa_findBySN
 .text.oa_findByLN
                0x000222e8       0x94 dlms\src\objectarray.o
                0x000222e8                oa_findByLN
 .text.params_initSN
                0x0002237c       0x64 dlms\src\parameters.o
                0x0002237c                params_initSN
 .text.params_initLN
                0x000223e0       0x9c dlms\src\parameters.o
                0x000223e0                params_initLN
 .text.reply_init
                0x0002247c       0x84 dlms\src\replydata.o
                0x0002247c                reply_init
 .text.reply_clear2
                0x00022500       0x98 dlms\src\replydata.o
                0x00022500                reply_clear2
 .text.svr_copyAssociationView
                0x00022598       0x88 dlms\src\server.o
                0x00022598                svr_copyAssociationView
 .text.svr_initialize
                0x00022620      0x1bc dlms\src\server.o
                0x00022620                svr_initialize
 .text.svr_updateShortNames
                0x000227dc       0xe4 dlms\src\server.o
                0x000227dc                svr_updateShortNames
 .text.svr_setInitialize
                0x000228c0       0xb8 dlms\src\server.o
                0x000228c0                svr_setInitialize
 .text.svr_reset
                0x00022978       0x48 dlms\src\server.o
                0x00022978                svr_reset
 .text.svr_HandleAarqRequest
                0x000229c0      0x3a0 dlms\src\server.o
                0x000229c0                svr_HandleAarqRequest
 .text.svr_handleSnrmRequest
                0x00022d60      0x1b0 dlms\src\server.o
                0x00022d60                svr_handleSnrmRequest
 .text.svr_generateDisconnectRequest
                0x00022f10       0xc8 dlms\src\server.o
                0x00022f10                svr_generateDisconnectRequest
 .text.svr_reportError
                0x00022fd8      0x1a0 dlms\src\server.o
                0x00022fd8                svr_reportError
 .text.svr_handleSetRequest2
                0x00023178      0x334 dlms\src\server.o
                0x00023178                svr_handleSetRequest2
 .text.svr_hanleSetRequestWithDataBlock
                0x000234ac      0x164 dlms\src\server.o
                0x000234ac                svr_hanleSetRequestWithDataBlock
 .text.svr_generateConfirmedServiceError
                0x00023610       0x64 dlms\src\server.o
                0x00023610                svr_generateConfirmedServiceError
 .text.svr_handleSetRequest
                0x00023674      0x11c dlms\src\server.o
                0x00023674                svr_handleSetRequest
 .text.svr_getRequestNormal
                0x00023790      0x3d4 dlms\src\server.o
                0x00023790                svr_getRequestNormal
 .text.svr_getRequestNextDataBlock
                0x00023b64      0x24c dlms\src\server.o
                0x00023b64                svr_getRequestNextDataBlock
 .text.svr_getRequestWithList
                0x00023db0      0x36c dlms\src\server.o
                0x00023db0                svr_getRequestWithList
 .text.svr_handleGetRequest
                0x0002411c      0x120 dlms\src\server.o
                0x0002411c                svr_handleGetRequest
 .text.svr_findSNObject
                0x0002423c      0x114 dlms\src\server.o
                0x0002423c                svr_findSNObject
 .text.svr_handleRead
                0x00024350      0x14c dlms\src\server.o
                0x00024350                svr_handleRead
 .text.svr_getReadData
                0x0002449c      0x190 dlms\src\server.o
                0x0002449c                svr_getReadData
 .text.svr_handleReadBlockNumberAccess
                0x0002462c      0x260 dlms\src\server.o
                0x0002462c                svr_handleReadBlockNumberAccess
 .text.svr_handleReadDataBlockAccess
                0x0002488c      0x2ac dlms\src\server.o
                0x0002488c                svr_handleReadDataBlockAccess
 .text.svr_returnSNError
                0x00024b38       0x70 dlms\src\server.o
                0x00024b38                svr_returnSNError
 .text.svr_handleReadRequest
                0x00024ba8      0x314 dlms\src\server.o
                0x00024ba8                svr_handleReadRequest
 .text.svr_handleWriteRequest
                0x00024ebc      0x3f4 dlms\src\server.o
                0x00024ebc                svr_handleWriteRequest
 .text.svr_handleMethodRequest
                0x000252b0      0x2e8 dlms\src\server.o
                0x000252b0                svr_handleMethodRequest
 .text.svr_handleReleaseRequest
                0x00025598       0xdc dlms\src\server.o
                0x00025598                svr_handleReleaseRequest
 .text.svr_handleCommand
                0x00025674      0x1f4 dlms\src\server.o
                0x00025674                svr_handleCommand
 .text.svr_handleRequest3
                0x00025868       0x28 dlms\src\server.o
                0x00025868                svr_handleRequest3
 .text.svr_handleRequest2
                0x00025890      0x660 dlms\src\server.o
                0x00025890                svr_handleRequest2
 .text.var_setEnum
                0x00025ef0       0x28 dlms\src\variant.o
                0x00025ef0                var_setEnum
 .text.var_setUInt8
                0x00025f18       0x28 dlms\src\variant.o
                0x00025f18                var_setUInt8
 .text.var_setUInt16
                0x00025f40       0x28 dlms\src\variant.o
                0x00025f40                var_setUInt16
 .text.var_setUInt32
                0x00025f68       0x28 dlms\src\variant.o
                0x00025f68                var_setUInt32
 .text.var_setInt8
                0x00025f90       0x2c dlms\src\variant.o
                0x00025f90                var_setInt8
 .text.var_setInt16
                0x00025fbc       0x28 dlms\src\variant.o
                0x00025fbc                var_setInt16
 .text.var_setInt32
                0x00025fe4       0x28 dlms\src\variant.o
                0x00025fe4                var_setInt32
 .text.var_setDouble
                0x0002600c       0x2c dlms\src\variant.o
                0x0002600c                var_setDouble
 .text.var_addBytes
                0x00026038       0x60 dlms\src\variant.o
                0x00026038                var_addBytes
 .text.var_setString
                0x00026098       0x58 dlms\src\variant.o
                0x00026098                var_setString
 .text.var_addOctetString
                0x000260f0       0x38 dlms\src\variant.o
                0x000260f0                var_addOctetString
 .text.var_init
                0x00026128       0x20 dlms\src\variant.o
                0x00026128                var_init
 .text.var_clear
                0x00026148      0x114 dlms\src\variant.o
                0x00026148                var_clear
 .text.var_getDateTime2
                0x0002625c      0x20c dlms\src\variant.o
                0x0002625c                var_getDateTime2
 .text.var_getDate
                0x00026468       0xd8 dlms\src\variant.o
                0x00026468                var_getDate
 .text.var_getTime
                0x00026540       0xbc dlms\src\variant.o
                0x00026540                var_getTime
 .text.var_getBytes
                0x000265fc       0x24 dlms\src\variant.o
                0x000265fc                var_getBytes
 .text.var_setOctetString
                0x00026620       0xa8 dlms\src\variant.o
                0x00026620                var_setOctetString
 .text.var_getBytes2
                0x000266c8      0x340 dlms\src\variant.o
                0x000266c8                var_getBytes2
 .text.var_getSize
                0x00026a08       0xc4 dlms\src\variant.o
                0x00026a08                var_getSize
 .text.var_toInteger
                0x00026acc       0xe8 dlms\src\variant.o
                0x00026acc                var_toInteger
 .text.va_isAttached
                0x00026bb4       0x20 dlms\src\variant.o
                0x00026bb4                va_isAttached
 .text.va_getCapacity
                0x00026bd4       0x1c dlms\src\variant.o
                0x00026bd4                va_getCapacity
 .text.va_init  0x00026bf0       0x2c dlms\src\variant.o
                0x00026bf0                va_init
 .text.va_capacity
                0x00026c1c       0x80 dlms\src\variant.o
                0x00026c1c                va_capacity
 .text.va_push  0x00026c9c       0xa8 dlms\src\variant.o
                0x00026c9c                va_push
 .text.va_clear
                0x00026d44       0x8c dlms\src\variant.o
                0x00026d44                va_clear
 .text.va_attach
                0x00026dd0       0x50 dlms\src\variant.o
                0x00026dd0                va_attach
 .text.va_get   0x00026e20       0x4c dlms\src\variant.o
                0x00026e20                va_get
 .text.va_getByIndex
                0x00026e6c       0x40 dlms\src\variant.o
                0x00026e6c                va_getByIndex
 .text.var_toString
                0x00026eac       0x6c dlms\src\variant.o
                0x00026eac                var_toString
 .text.convert  0x00026f18      0xa98 dlms\src\variant.o
 .text.var_changeType
                0x000279b0      0x3c4 dlms\src\variant.o
                0x000279b0                var_changeType
 .text.var_copy
                0x00027d74      0x2a0 dlms\src\variant.o
                0x00027d74                var_copy
 .text.var_setDateTime
                0x00028014       0x48 dlms\src\variant.o
                0x00028014                var_setDateTime
 .text.var_setDate
                0x0002805c       0x48 dlms\src\variant.o
                0x0002805c                var_setDate
 .text.var_setTime
                0x000280a4       0x48 dlms\src\variant.o
                0x000280a4                var_setTime
 .text.var_setDateTimeAsOctetString
                0x000280ec       0x68 dlms\src\variant.o
                0x000280ec                var_setDateTimeAsOctetString
 .text.var_setTimeAsOctetString
                0x00028154       0x68 dlms\src\variant.o
                0x00028154                var_setTimeAsOctetString
 .text.var_setBoolean
                0x000281bc       0x34 dlms\src\variant.o
                0x000281bc                var_setBoolean
 .text.var_attach
                0x000281f0       0x6c dlms\src\variant.o
                0x000281f0                var_attach
 .text.var_toDouble
                0x0002825c      0x18c dlms\src\variant.o
                0x0002825c                var_toDouble
 .text.readVoltage
                0x000283e8       0x74 energymeter\LT_energymeter.o
                0x000283e8                readVoltage
 .text.readCurrent
                0x0002845c       0x68 energymeter\LT_energymeter.o
                0x0002845c                readCurrent
 .text.readTotalActivePower
                0x000284c4       0x60 energymeter\LT_energymeter.o
                0x000284c4                readTotalActivePower
 .text.readTotalApparentPower
                0x00028524       0x60 energymeter\LT_energymeter.o
                0x00028524                readTotalApparentPower
 .text.readTotalPowerFactor
                0x00028584       0x60 energymeter\LT_energymeter.o
                0x00028584                readTotalPowerFactor
 .text.readLineFrequency
                0x000285e4       0x60 energymeter\LT_energymeter.o
                0x000285e4                readLineFrequency
 .text.energy_meter_init
                0x00028644        0xc energymeter\LT_energymeter.o
                0x00028644                energy_meter_init
 .text.initTimer0
                0x00028650       0x4c modbus\modbus.o
                0x00028650                initTimer0
 .text.delayMS  0x0002869c       0x38 modbus\modbus.o
                0x0002869c                delayMS
 .text.calculate_crc16
                0x000286d4       0x78 modbus\modbus.o
                0x000286d4                calculate_crc16
 .text.construct_rtu_req
                0x0002874c       0x6c modbus\modbus.o
                0x0002874c                construct_rtu_req
 .text.get_time_out_value
                0x000287b8       0x1c modbus\modbus.o
                0x000287b8                get_time_out_value
 .text.get_time_out_count
                0x000287d4       0x20 modbus\modbus.o
                0x000287d4                get_time_out_count
 .text.read_modbus_reg
                0x000287f4      0x1a4 modbus\modbus.o
                0x000287f4                read_modbus_reg
 .text.modbus_master_init
                0x00028998       0x30 modbus\modbus.o
                0x00028998                modbus_master_init
 .text.modbus_uart_send
                0x000289c8       0x30 modbus\modbus.o
                0x000289c8                modbus_uart_send
 .text.UART1_IRQHandler
                0x000289f8       0xc0 modbus\modbus.o
                0x000289f8                UART1_IRQHandler
 .text.time_current
                0x00028ab8       0x10 src\main.o
                0x00028ab8                time_current
 .text.time_elapsed
                0x00028ac8       0x10 src\main.o
                0x00028ac8                time_elapsed
 .text.time_now
                0x00028ad8       0x14 src\main.o
                0x00028ad8                time_now
 .text.addAssociation
                0x00028aec       0x5c src\main.o
                0x00028aec                addAssociation
 .text.addLogicalDeviceName
                0x00028b48       0x68 src\main.o
                0x00028b48                addLogicalDeviceName
 .text.addPfRegisterObject
                0x00028bb0       0x4c src\main.o
                0x00028bb0                addPfRegisterObject
 .text.addl1VoltageRegisterObject
                0x00028bfc       0x4c src\main.o
                0x00028bfc                addl1VoltageRegisterObject
 .text.addl2VoltageRegisterObject
                0x00028c48       0x4c src\main.o
                0x00028c48                addl2VoltageRegisterObject
 .text.addl3VoltageRegisterObject
                0x00028c94       0x4c src\main.o
                0x00028c94                addl3VoltageRegisterObject
 .text.addl1CurrentRegisterObject
                0x00028ce0       0x4c src\main.o
                0x00028ce0                addl1CurrentRegisterObject
 .text.addl2CurrentRegisterObject
                0x00028d2c       0x4c src\main.o
                0x00028d2c                addl2CurrentRegisterObject
 .text.addl3CurrentRegisterObject
                0x00028d78       0x4c src\main.o
                0x00028d78                addl3CurrentRegisterObject
 .text.addKwhRegisterObject
                0x00028dc4       0x4c src\main.o
                0x00028dc4                addKwhRegisterObject
 .text.addKvahRegisterObject
                0x00028e10       0x4c src\main.o
                0x00028e10                addKvahRegisterObject
 .text.addlineFreq
                0x00028e5c       0x4c src\main.o
                0x00028e5c                addlineFreq
 .text.svr_InitObjects
                0x00028ea8       0x54 src\main.o
                0x00028ea8                svr_InitObjects
 .text.svr_findObject
                0x00028efc       0x2c src\main.o
                0x00028efc                svr_findObject
 .text.svr_preRead
                0x00028f28      0x27c src\main.o
                0x00028f28                svr_preRead
 .text.svr_preWrite
                0x000291a4       0x44 src\main.o
                0x000291a4                svr_preWrite
 .text.svr_preAction
                0x000291e8       0x44 src\main.o
                0x000291e8                svr_preAction
 .text.svr_postRead
                0x0002922c       0x14 src\main.o
                0x0002922c                svr_postRead
 .text.svr_postWrite
                0x00029240       0x14 src\main.o
                0x00029240                svr_postWrite
 .text.svr_postAction
                0x00029254       0x44 src\main.o
                0x00029254                svr_postAction
 .text.svr_isTarget
                0x00029298       0x78 src\main.o
                0x00029298                svr_isTarget
 .text.svr_validateAuthentication
                0x00029310       0x24 src\main.o
                0x00029310                svr_validateAuthentication
 .text.svr_getAttributeAccess
                0x00029334       0x4c src\main.o
                0x00029334                svr_getAttributeAccess
 .text.svr_getMethodAccess
                0x00029380       0x44 src\main.o
                0x00029380                svr_getMethodAccess
 .text.svr_connected
                0x000293c4       0x14 src\main.o
                0x000293c4                svr_connected
 .text.svr_invalidConnection
                0x000293d8       0x14 src\main.o
                0x000293d8                svr_invalidConnection
 .text.svr_disconnected
                0x000293ec       0x14 src\main.o
                0x000293ec                svr_disconnected
 .text.UART3_IRQHandler
                0x00029400      0x14c src\main.o
                0x00029400                UART3_IRQHandler
 .text.main     0x0002954c       0xbc src\main.o
                0x0002954c                main
 .text.Reset_Handler
                0x00029608       0x50 src\startup_LPC17xx.o
                0x00029608                Reset_Handler
 .text.Default_Handler
                0x00029658        0x2 src\startup_LPC17xx.o
                0x00029658                TIMER2_IRQHandler
                0x00029658                DebugMon_Handler
                0x00029658                RIT_IRQHandler
                0x00029658                I2C0_IRQHandler
                0x00029658                HardFault_Handler
                0x00029658                USBActivity_IRQHandler
                0x00029658                PWM1_IRQHandler
                0x00029658                PendSV_Handler
                0x00029658                NMI_Handler
                0x00029658                I2C1_IRQHandler
                0x00029658                EINT2_IRQHandler
                0x00029658                EINT3_IRQHandler
                0x00029658                CANActivity_IRQHandler
                0x00029658                TIMER3_IRQHandler
                0x00029658                UART0_IRQHandler
                0x00029658                UsageFault_Handler
                0x00029658                PLL0_IRQHandler
                0x00029658                CAN_IRQHandler
                0x00029658                PLL1_IRQHandler
                0x00029658                SSP0_IRQHandler
                0x00029658                I2S_IRQHandler
                0x00029658                I2C2_IRQHandler
                0x00029658                RTC_IRQHandler
                0x00029658                TIMER0_IRQHandler
                0x00029658                SPI_IRQHandler
                0x00029658                EINT1_IRQHandler
                0x00029658                TIMER1_IRQHandler
                0x00029658                UART2_IRQHandler
                0x00029658                Default_Handler
                0x00029658                ADC_IRQHandler
                0x00029658                SSP1_IRQHandler
                0x00029658                USB_IRQHandler
                0x00029658                BOD_IRQHandler
                0x00029658                MemManage_Handler
                0x00029658                WDT_IRQHandler
                0x00029658                SVC_Handler
                0x00029658                QEI_IRQHandler
                0x00029658                EINT0_IRQHandler
                0x00029658                DMA_IRQHandler
                0x00029658                BusFault_Handler
                0x00029658                MCPWM_IRQHandler
                0x00029658                ENET_IRQHandler
 *fill*         0x0002965a        0x2 
 .text.SystemInit
                0x0002965c      0x150 src\system_LPC17xx.o
                0x0002965c                SystemInit
 .text.get_elapsed_time
                0x000297ac       0x2c systick_timer\systick_timer.o
                0x000297ac                get_elapsed_time
 .text.SysTick_Handler
                0x000297d8       0x20 systick_timer\systick_timer.o
                0x000297d8                SysTick_Handler
 .text.calloc   0x000297f8       0x10 c:/program files (x86)/atollic/truestudio for arm 7.1.0/armtools/bin/../lib/gcc/arm-atollic-eabi/5.3.1/../../../../arm-atollic-eabi/lib/armv7-m\libc_nano.a(lib_a-calloc.o)
                0x000297f8                calloc
 .text.__libc_init_array
                0x00029808       0x4c c:/program files (x86)/atollic/truestudio for arm 7.1.0/armtools/bin/../lib/gcc/arm-atollic-eabi/5.3.1/../../../../arm-atollic-eabi/lib/armv7-m\libc_nano.a(lib_a-init.o)
                0x00029808                __libc_init_array
 .text.localtime
                0x00029854       0x24 c:/program files (x86)/atollic/truestudio for arm 7.1.0/armtools/bin/../lib/gcc/arm-atollic-eabi/5.3.1/../../../../arm-atollic-eabi/lib/armv7-m\libc_nano.a(lib_a-lcltime.o)
                0x00029854                localtime
 .text.localtime_r
                0x00029878      0x1cc c:/program files (x86)/atollic/truestudio for arm 7.1.0/armtools/bin/../lib/gcc/arm-atollic-eabi/5.3.1/../../../../arm-atollic-eabi/lib/armv7-m\libc_nano.a(lib_a-lcltime_r.o)
                0x00029878                localtime_r
 .text.malloc   0x00029a44       0x10 c:/program files (x86)/atollic/truestudio for arm 7.1.0/armtools/bin/../lib/gcc/arm-atollic-eabi/5.3.1/../../../../arm-atollic-eabi/lib/armv7-m\libc_nano.a(lib_a-malloc.o)
                0x00029a44                malloc
 .text.free     0x00029a54       0x10 c:/program files (x86)/atollic/truestudio for arm 7.1.0/armtools/bin/../lib/gcc/arm-atollic-eabi/5.3.1/../../../../arm-atollic-eabi/lib/armv7-m\libc_nano.a(lib_a-malloc.o)
                0x00029a54                free
 .text.memcmp   0x00029a64       0x1e c:/program files (x86)/atollic/truestudio for arm 7.1.0/armtools/bin/../lib/gcc/arm-atollic-eabi/5.3.1/../../../../arm-atollic-eabi/lib/armv7-m\libc_nano.a(lib_a-memcmp.o)
                0x00029a64                memcmp
 .text.memcpy   0x00029a82       0x16 c:/program files (x86)/atollic/truestudio for arm 7.1.0/armtools/bin/../lib/gcc/arm-atollic-eabi/5.3.1/../../../../arm-atollic-eabi/lib/armv7-m\libc_nano.a(lib_a-memcpy-stub.o)
                0x00029a82                memcpy
 .text.memmove  0x00029a98       0x36 c:/program files (x86)/atollic/truestudio for arm 7.1.0/armtools/bin/../lib/gcc/arm-atollic-eabi/5.3.1/../../../../arm-atollic-eabi/lib/armv7-m\libc_nano.a(lib_a-memmove.o)
                0x00029a98                memmove
 .text.memset   0x00029ace       0x10 c:/program files (x86)/atollic/truestudio for arm 7.1.0/armtools/bin/../lib/gcc/arm-atollic-eabi/5.3.1/../../../../arm-atollic-eabi/lib/armv7-m\libc_nano.a(lib_a-memset.o)
                0x00029ace                memset
 *fill*         0x00029ade        0x2 
 .text.validate_structure
                0x00029ae0      0x1b8 c:/program files (x86)/atollic/truestudio for arm 7.1.0/armtools/bin/../lib/gcc/arm-atollic-eabi/5.3.1/../../../../arm-atollic-eabi/lib/armv7-m\libc_nano.a(lib_a-mktime.o)
 .text.mktime   0x00029c98      0x2e4 c:/program files (x86)/atollic/truestudio for arm 7.1.0/armtools/bin/../lib/gcc/arm-atollic-eabi/5.3.1/../../../../arm-atollic-eabi/lib/armv7-m\libc_nano.a(lib_a-mktime.o)
                0x00029c98                mktime
 .text._calloc_r
                0x00029f7c       0x1c c:/program files (x86)/atollic/truestudio for arm 7.1.0/armtools/bin/../lib/gcc/arm-atollic-eabi/5.3.1/../../../../arm-atollic-eabi/lib/armv7-m\libc_nano.a(lib_a-nano-callocr.o)
                0x00029f7c                _calloc_r
 .text._free_r  0x00029f98       0x98 c:/program files (x86)/atollic/truestudio for arm 7.1.0/armtools/bin/../lib/gcc/arm-atollic-eabi/5.3.1/../../../../arm-atollic-eabi/lib/armv7-m\libc_nano.a(lib_a-nano-freer.o)
                0x00029f98                _free_r
 .text._malloc_r
                0x0002a030       0xbc c:/program files (x86)/atollic/truestudio for arm 7.1.0/armtools/bin/../lib/gcc/arm-atollic-eabi/5.3.1/../../../../arm-atollic-eabi/lib/armv7-m\libc_nano.a(lib_a-nano-mallocr.o)
                0x0002a030                _malloc_r
 .text._puts_r  0x0002a0ec       0xb4 c:/program files (x86)/atollic/truestudio for arm 7.1.0/armtools/bin/../lib/gcc/arm-atollic-eabi/5.3.1/../../../../arm-atollic-eabi/lib/armv7-m\libc_nano.a(lib_a-puts.o)
                0x0002a0ec                _puts_r
 .text.puts     0x0002a1a0       0x10 c:/program files (x86)/atollic/truestudio for arm 7.1.0/armtools/bin/../lib/gcc/arm-atollic-eabi/5.3.1/../../../../arm-atollic-eabi/lib/armv7-m\libc_nano.a(lib_a-puts.o)
                0x0002a1a0                puts
 .text.realloc  0x0002a1b0       0x10 c:/program files (x86)/atollic/truestudio for arm 7.1.0/armtools/bin/../lib/gcc/arm-atollic-eabi/5.3.1/../../../../arm-atollic-eabi/lib/armv7-m\libc_nano.a(lib_a-realloc.o)
                0x0002a1b0                realloc
 .text._sbrk_r  0x0002a1c0       0x20 c:/program files (x86)/atollic/truestudio for arm 7.1.0/armtools/bin/../lib/gcc/arm-atollic-eabi/5.3.1/../../../../arm-atollic-eabi/lib/armv7-m\libc_nano.a(lib_a-sbrkr.o)
                0x0002a1c0                _sbrk_r
 .text.sprintf  0x0002a1e0       0x48 c:/program files (x86)/atollic/truestudio for arm 7.1.0/armtools/bin/../lib/gcc/arm-atollic-eabi/5.3.1/../../../../arm-atollic-eabi/lib/armv7-m\libc_nano.a(lib_a-sprintf.o)
                0x0002a1e0                siprintf
                0x0002a1e0                sprintf
 .text.sscanf   0x0002a228       0x54 c:/program files (x86)/atollic/truestudio for arm 7.1.0/armtools/bin/../lib/gcc/arm-atollic-eabi/5.3.1/../../../../arm-atollic-eabi/lib/armv7-m\libc_nano.a(lib_a-sscanf.o)
                0x0002a228                siscanf
                0x0002a228                sscanf
 .text.__sread  0x0002a27c       0x22 c:/program files (x86)/atollic/truestudio for arm 7.1.0/armtools/bin/../lib/gcc/arm-atollic-eabi/5.3.1/../../../../arm-atollic-eabi/lib/armv7-m\libc_nano.a(lib_a-stdio.o)
                0x0002a27c                __sread
 .text.__seofread
                0x0002a29e        0x4 c:/program files (x86)/atollic/truestudio for arm 7.1.0/armtools/bin/../lib/gcc/arm-atollic-eabi/5.3.1/../../../../arm-atollic-eabi/lib/armv7-m\libc_nano.a(lib_a-stdio.o)
                0x0002a29e                __seofread
 .text.__swrite
                0x0002a2a2       0x38 c:/program files (x86)/atollic/truestudio for arm 7.1.0/armtools/bin/../lib/gcc/arm-atollic-eabi/5.3.1/../../../../arm-atollic-eabi/lib/armv7-m\libc_nano.a(lib_a-stdio.o)
                0x0002a2a2                __swrite
 .text.__sseek  0x0002a2da       0x24 c:/program files (x86)/atollic/truestudio for arm 7.1.0/armtools/bin/../lib/gcc/arm-atollic-eabi/5.3.1/../../../../arm-atollic-eabi/lib/armv7-m\libc_nano.a(lib_a-stdio.o)
                0x0002a2da                __sseek
 .text.__sclose
                0x0002a2fe        0x8 c:/program files (x86)/atollic/truestudio for arm 7.1.0/armtools/bin/../lib/gcc/arm-atollic-eabi/5.3.1/../../../../arm-atollic-eabi/lib/armv7-m\libc_nano.a(lib_a-stdio.o)
                0x0002a2fe                __sclose
 *fill*         0x0002a306        0x2 
 .text.__tzcalc_limits
                0x0002a308      0x150 c:/program files (x86)/atollic/truestudio for arm 7.1.0/armtools/bin/../lib/gcc/arm-atollic-eabi/5.3.1/../../../../arm-atollic-eabi/lib/armv7-m\libc_nano.a(lib_a-tzcalc_limits.o)
                0x0002a308                __tzcalc_limits
 .text.__tz_lock
                0x0002a458        0x2 c:/program files (x86)/atollic/truestudio for arm 7.1.0/armtools/bin/../lib/gcc/arm-atollic-eabi/5.3.1/../../../../arm-atollic-eabi/lib/armv7-m\libc_nano.a(lib_a-tzlock.o)
                0x0002a458                __tz_lock
 .text.__tz_unlock
                0x0002a45a        0x2 c:/program files (x86)/atollic/truestudio for arm 7.1.0/armtools/bin/../lib/gcc/arm-atollic-eabi/5.3.1/../../../../arm-atollic-eabi/lib/armv7-m\libc_nano.a(lib_a-tzlock.o)
                0x0002a45a                __tz_unlock
 .text._tzset_unlocked
                0x0002a45c        0xc c:/program files (x86)/atollic/truestudio for arm 7.1.0/armtools/bin/../lib/gcc/arm-atollic-eabi/5.3.1/../../../../arm-atollic-eabi/lib/armv7-m\libc_nano.a(lib_a-tzset.o)
                0x0002a45c                _tzset_unlocked
 .text._tzset_unlocked_r
                0x0002a468      0x300 c:/program files (x86)/atollic/truestudio for arm 7.1.0/armtools/bin/../lib/gcc/arm-atollic-eabi/5.3.1/../../../../arm-atollic-eabi/lib/armv7-m\libc_nano.a(lib_a-tzset_r.o)
                0x0002a468                _tzset_unlocked_r
 .text.__swbuf_r
                0x0002a768       0xa8 c:/program files (x86)/atollic/truestudio for arm 7.1.0/armtools/bin/../lib/gcc/arm-atollic-eabi/5.3.1/../../../../arm-atollic-eabi/lib/armv7-m\libc_nano.a(lib_a-wbuf.o)
                0x0002a768                __swbuf_r
 .text._write_r
                0x0002a810       0x24 c:/program files (x86)/atollic/truestudio for arm 7.1.0/armtools/bin/../lib/gcc/arm-atollic-eabi/5.3.1/../../../../arm-atollic-eabi/lib/armv7-m\libc_nano.a(lib_a-writer.o)
                0x0002a810                _write_r
 .text.__swsetup_r
                0x0002a834       0xdc c:/program files (x86)/atollic/truestudio for arm 7.1.0/armtools/bin/../lib/gcc/arm-atollic-eabi/5.3.1/../../../../arm-atollic-eabi/lib/armv7-m\libc_nano.a(lib_a-wsetup.o)
                0x0002a834                __swsetup_r
 .text._close_r
                0x0002a910       0x20 c:/program files (x86)/atollic/truestudio for arm 7.1.0/armtools/bin/../lib/gcc/arm-atollic-eabi/5.3.1/../../../../arm-atollic-eabi/lib/armv7-m\libc_nano.a(lib_a-closer.o)
                0x0002a910                _close_r
 .text.div      0x0002a930       0x28 c:/program files (x86)/atollic/truestudio for arm 7.1.0/armtools/bin/../lib/gcc/arm-atollic-eabi/5.3.1/../../../../arm-atollic-eabi/lib/armv7-m\libc_nano.a(lib_a-div.o)
                0x0002a930                div
 .text.__sflush_r
                0x0002a958      0x10c c:/program files (x86)/atollic/truestudio for arm 7.1.0/armtools/bin/../lib/gcc/arm-atollic-eabi/5.3.1/../../../../arm-atollic-eabi/lib/armv7-m\libc_nano.a(lib_a-fflush.o)
                0x0002a958                __sflush_r
 .text._fflush_r
                0x0002aa64       0x54 c:/program files (x86)/atollic/truestudio for arm 7.1.0/armtools/bin/../lib/gcc/arm-atollic-eabi/5.3.1/../../../../arm-atollic-eabi/lib/armv7-m\libc_nano.a(lib_a-fflush.o)
                0x0002aa64                _fflush_r
 .text._cleanup_r
                0x0002aab8        0xc c:/program files (x86)/atollic/truestudio for arm 7.1.0/armtools/bin/../lib/gcc/arm-atollic-eabi/5.3.1/../../../../arm-atollic-eabi/lib/armv7-m\libc_nano.a(lib_a-findfp.o)
                0x0002aab8                _cleanup_r
 .text.std.isra.0
                0x0002aac4       0x48 c:/program files (x86)/atollic/truestudio for arm 7.1.0/armtools/bin/../lib/gcc/arm-atollic-eabi/5.3.1/../../../../arm-atollic-eabi/lib/armv7-m\libc_nano.a(lib_a-findfp.o)
 .text.__sfmoreglue
                0x0002ab0c       0x2c c:/program files (x86)/atollic/truestudio for arm 7.1.0/armtools/bin/../lib/gcc/arm-atollic-eabi/5.3.1/../../../../arm-atollic-eabi/lib/armv7-m\libc_nano.a(lib_a-findfp.o)
                0x0002ab0c                __sfmoreglue
 .text.__sinit  0x0002ab38       0x60 c:/program files (x86)/atollic/truestudio for arm 7.1.0/armtools/bin/../lib/gcc/arm-atollic-eabi/5.3.1/../../../../arm-atollic-eabi/lib/armv7-m\libc_nano.a(lib_a-findfp.o)
                0x0002ab38                __sinit
 .text.__sfp    0x0002ab98       0x78 c:/program files (x86)/atollic/truestudio for arm 7.1.0/armtools/bin/../lib/gcc/arm-atollic-eabi/5.3.1/../../../../arm-atollic-eabi/lib/armv7-m\libc_nano.a(lib_a-findfp.o)
                0x0002ab98                __sfp
 .text._fwalk_reent
                0x0002ac10       0x3c c:/program files (x86)/atollic/truestudio for arm 7.1.0/armtools/bin/../lib/gcc/arm-atollic-eabi/5.3.1/../../../../arm-atollic-eabi/lib/armv7-m\libc_nano.a(lib_a-fwalk.o)
                0x0002ac10                _fwalk_reent
 .text._findenv_r
                0x0002ac4c       0x78 c:/program files (x86)/atollic/truestudio for arm 7.1.0/armtools/bin/../lib/gcc/arm-atollic-eabi/5.3.1/../../../../arm-atollic-eabi/lib/armv7-m\libc_nano.a(lib_a-getenv_r.o)
                0x0002ac4c                _findenv_r
 .text._getenv_r
                0x0002acc4        0xe c:/program files (x86)/atollic/truestudio for arm 7.1.0/armtools/bin/../lib/gcc/arm-atollic-eabi/5.3.1/../../../../arm-atollic-eabi/lib/armv7-m\libc_nano.a(lib_a-getenv_r.o)
                0x0002acc4                _getenv_r
 *fill*         0x0002acd2        0x2 
 .text.__gettzinfo
                0x0002acd4        0x8 c:/program files (x86)/atollic/truestudio for arm 7.1.0/armtools/bin/../lib/gcc/arm-atollic-eabi/5.3.1/../../../../arm-atollic-eabi/lib/armv7-m\libc_nano.a(lib_a-gettzinfo.o)
                0x0002acd4                __gettzinfo
 .text.gmtime_r
                0x0002acdc      0x12c c:/program files (x86)/atollic/truestudio for arm 7.1.0/armtools/bin/../lib/gcc/arm-atollic-eabi/5.3.1/../../../../arm-atollic-eabi/lib/armv7-m\libc_nano.a(lib_a-gmtime_r.o)
                0x0002acdc                gmtime_r
 .text._lseek_r
                0x0002ae08       0x24 c:/program files (x86)/atollic/truestudio for arm 7.1.0/armtools/bin/../lib/gcc/arm-atollic-eabi/5.3.1/../../../../arm-atollic-eabi/lib/armv7-m\libc_nano.a(lib_a-lseekr.o)
                0x0002ae08                _lseek_r
 .text.__swhatbuf_r
                0x0002ae2c       0x46 c:/program files (x86)/atollic/truestudio for arm 7.1.0/armtools/bin/../lib/gcc/arm-atollic-eabi/5.3.1/../../../../arm-atollic-eabi/lib/armv7-m\libc_nano.a(lib_a-makebuf.o)
                0x0002ae2c                __swhatbuf_r
 *fill*         0x0002ae72        0x2 
 .text.__smakebuf_r
                0x0002ae74       0x78 c:/program files (x86)/atollic/truestudio for arm 7.1.0/armtools/bin/../lib/gcc/arm-atollic-eabi/5.3.1/../../../../arm-atollic-eabi/lib/armv7-m\libc_nano.a(lib_a-makebuf.o)
                0x0002ae74                __smakebuf_r
 .text.__malloc_lock
                0x0002aeec        0x2 c:/program files (x86)/atollic/truestudio for arm 7.1.0/armtools/bin/../lib/gcc/arm-atollic-eabi/5.3.1/../../../../arm-atollic-eabi/lib/armv7-m\libc_nano.a(lib_a-mlock.o)
                0x0002aeec                __malloc_lock
 .text.__malloc_unlock
                0x0002aeee        0x2 c:/program files (x86)/atollic/truestudio for arm 7.1.0/armtools/bin/../lib/gcc/arm-atollic-eabi/5.3.1/../../../../arm-atollic-eabi/lib/armv7-m\libc_nano.a(lib_a-mlock.o)
                0x0002aeee                __malloc_unlock
 .text._realloc_r
                0x0002aef0       0x4c c:/program files (x86)/atollic/truestudio for arm 7.1.0/armtools/bin/../lib/gcc/arm-atollic-eabi/5.3.1/../../../../arm-atollic-eabi/lib/armv7-m\libc_nano.a(lib_a-nano-reallocr.o)
                0x0002aef0                _realloc_r
 .text.__ssputs_r
                0x0002af3c       0xb2 c:/program files (x86)/atollic/truestudio for arm 7.1.0/armtools/bin/../lib/gcc/arm-atollic-eabi/5.3.1/../../../../arm-atollic-eabi/lib/armv7-m\libc_nano.a(lib_a-nano-svfprintf.o)
                0x0002af3c                __ssputs_r
 *fill*         0x0002afee        0x2 
 .text._svfprintf_r
                0x0002aff0      0x1e8 c:/program files (x86)/atollic/truestudio for arm 7.1.0/armtools/bin/../lib/gcc/arm-atollic-eabi/5.3.1/../../../../arm-atollic-eabi/lib/armv7-m\libc_nano.a(lib_a-nano-svfprintf.o)
                0x0002aff0                _svfiprintf_r
                0x0002aff0                _svfprintf_r
 .text._sungetc_r
                0x0002b1d8       0x7c c:/program files (x86)/atollic/truestudio for arm 7.1.0/armtools/bin/../lib/gcc/arm-atollic-eabi/5.3.1/../../../../arm-atollic-eabi/lib/armv7-m\libc_nano.a(lib_a-nano-svfscanf.o)
                0x0002b1d8                _sungetc_r
 .text.__ssrefill_r
                0x0002b254       0x3a c:/program files (x86)/atollic/truestudio for arm 7.1.0/armtools/bin/../lib/gcc/arm-atollic-eabi/5.3.1/../../../../arm-atollic-eabi/lib/armv7-m\libc_nano.a(lib_a-nano-svfscanf.o)
                0x0002b254                __ssrefill_r
 *fill*         0x0002b28e        0x2 
 .text.__ssvfscanf_r
                0x0002b290      0x2a8 c:/program files (x86)/atollic/truestudio for arm 7.1.0/armtools/bin/../lib/gcc/arm-atollic-eabi/5.3.1/../../../../arm-atollic-eabi/lib/armv7-m\libc_nano.a(lib_a-nano-svfscanf.o)
                0x0002b290                __ssvfiscanf_r
                0x0002b290                __ssvfscanf_r
 .text._printf_common
                0x0002b538       0xec c:/program files (x86)/atollic/truestudio for arm 7.1.0/armtools/bin/../lib/gcc/arm-atollic-eabi/5.3.1/../../../../arm-atollic-eabi/lib/armv7-m\libc_nano.a(lib_a-nano-vfprintf_i.o)
                0x0002b538                _printf_common
 .text._printf_i
                0x0002b624      0x24c c:/program files (x86)/atollic/truestudio for arm 7.1.0/armtools/bin/../lib/gcc/arm-atollic-eabi/5.3.1/../../../../arm-atollic-eabi/lib/armv7-m\libc_nano.a(lib_a-nano-vfprintf_i.o)
                0x0002b624                _printf_i
 .text._scanf_chars
                0x0002b870       0xcc c:/program files (x86)/atollic/truestudio for arm 7.1.0/armtools/bin/../lib/gcc/arm-atollic-eabi/5.3.1/../../../../arm-atollic-eabi/lib/armv7-m\libc_nano.a(lib_a-nano-vfscanf_i.o)
                0x0002b870                _scanf_chars
 .text._scanf_i
                0x0002b93c      0x1e4 c:/program files (x86)/atollic/truestudio for arm 7.1.0/armtools/bin/../lib/gcc/arm-atollic-eabi/5.3.1/../../../../arm-atollic-eabi/lib/armv7-m\libc_nano.a(lib_a-nano-vfscanf_i.o)
                0x0002b93c                _scanf_i
 .text._read_r  0x0002bb20       0x24 c:/program files (x86)/atollic/truestudio for arm 7.1.0/armtools/bin/../lib/gcc/arm-atollic-eabi/5.3.1/../../../../arm-atollic-eabi/lib/armv7-m\libc_nano.a(lib_a-readr.o)
                0x0002bb20                _read_r
 .text.__sccl   0x0002bb44       0x60 c:/program files (x86)/atollic/truestudio for arm 7.1.0/armtools/bin/../lib/gcc/arm-atollic-eabi/5.3.1/../../../../arm-atollic-eabi/lib/armv7-m\libc_nano.a(lib_a-sccl.o)
                0x0002bb44                __sccl
 .text.strcpy   0x0002bba4       0x10 c:/program files (x86)/atollic/truestudio for arm 7.1.0/armtools/bin/../lib/gcc/arm-atollic-eabi/5.3.1/../../../../arm-atollic-eabi/lib/armv7-m\libc_nano.a(lib_a-strcpy.o)
                0x0002bba4                strcpy
 .text.strncmp  0x0002bbb4       0x2a c:/program files (x86)/atollic/truestudio for arm 7.1.0/armtools/bin/../lib/gcc/arm-atollic-eabi/5.3.1/../../../../arm-atollic-eabi/lib/armv7-m\libc_nano.a(lib_a-strncmp.o)
                0x0002bbb4                strncmp
 *fill*         0x0002bbde        0x2 
 .text._strtol_r
                0x0002bbe0      0x10c c:/program files (x86)/atollic/truestudio for arm 7.1.0/armtools/bin/../lib/gcc/arm-atollic-eabi/5.3.1/../../../../arm-atollic-eabi/lib/armv7-m\libc_nano.a(lib_a-strtol.o)
                0x0002bbe0                _strtol_r
 .text._strtoul_r
                0x0002bcec       0xfc c:/program files (x86)/atollic/truestudio for arm 7.1.0/armtools/bin/../lib/gcc/arm-atollic-eabi/5.3.1/../../../../arm-atollic-eabi/lib/armv7-m\libc_nano.a(lib_a-strtoul.o)
                0x0002bcec                _strtoul_r
 .text.strtoul  0x0002bde8       0x14 c:/program files (x86)/atollic/truestudio for arm 7.1.0/armtools/bin/../lib/gcc/arm-atollic-eabi/5.3.1/../../../../arm-atollic-eabi/lib/armv7-m\libc_nano.a(lib_a-strtoul.o)
                0x0002bde8                strtoul
 .text.__submore
                0x0002bdfc       0x72 c:/program files (x86)/atollic/truestudio for arm 7.1.0/armtools/bin/../lib/gcc/arm-atollic-eabi/5.3.1/../../../../arm-atollic-eabi/lib/armv7-m\libc_nano.a(lib_a-ungetc.o)
                0x0002bdfc                __submore
 .text.__env_lock
                0x0002be6e        0x2 c:/program files (x86)/atollic/truestudio for arm 7.1.0/armtools/bin/../lib/gcc/arm-atollic-eabi/5.3.1/../../../../arm-atollic-eabi/lib/armv7-m\libc_nano.a(lib_a-envlock.o)
                0x0002be6e                __env_lock
 .text.__env_unlock
                0x0002be70        0x2 c:/program files (x86)/atollic/truestudio for arm 7.1.0/armtools/bin/../lib/gcc/arm-atollic-eabi/5.3.1/../../../../arm-atollic-eabi/lib/armv7-m\libc_nano.a(lib_a-envlock.o)
                0x0002be70                __env_unlock
 *fill*         0x0002be72        0x2 
 .text._fstat_r
                0x0002be74       0x24 c:/program files (x86)/atollic/truestudio for arm 7.1.0/armtools/bin/../lib/gcc/arm-atollic-eabi/5.3.1/../../../../arm-atollic-eabi/lib/armv7-m\libc_nano.a(lib_a-fstatr.o)
                0x0002be74                _fstat_r
 .text._isatty_r
                0x0002be98       0x20 c:/program files (x86)/atollic/truestudio for arm 7.1.0/armtools/bin/../lib/gcc/arm-atollic-eabi/5.3.1/../../../../arm-atollic-eabi/lib/armv7-m\libc_nano.a(lib_a-isattyr.o)
                0x0002be98                _isatty_r
 .text.memchr   0x0002beb8       0x1c c:/program files (x86)/atollic/truestudio for arm 7.1.0/armtools/bin/../lib/gcc/arm-atollic-eabi/5.3.1/../../../../arm-atollic-eabi/lib/armv7-m\libc_nano.a(lib_a-memchr-stub.o)
                0x0002beb8                memchr
 .text._malloc_usable_size_r
                0x0002bed4       0x14 c:/program files (x86)/atollic/truestudio for arm 7.1.0/armtools/bin/../lib/gcc/arm-atollic-eabi/5.3.1/../../../../arm-atollic-eabi/lib/armv7-m\libc_nano.a(lib_a-nano-msizer.o)
                0x0002bed4                _malloc_usable_size_r
 .text._close   0x0002bee8       0x10 c:/program files (x86)/atollic/truestudio for arm 7.1.0/armtools/bin/../lib/gcc/arm-atollic-eabi/5.3.1/../../../../arm-atollic-eabi/lib/armv7-m\libnosys.a(close.o)
                0x0002bee8                _close
 .text._fstat   0x0002bef8       0x10 c:/program files (x86)/atollic/truestudio for arm 7.1.0/armtools/bin/../lib/gcc/arm-atollic-eabi/5.3.1/../../../../arm-atollic-eabi/lib/armv7-m\libnosys.a(fstat.o)
                0x0002bef8                _fstat
 .text._isatty  0x0002bf08       0x10 c:/program files (x86)/atollic/truestudio for arm 7.1.0/armtools/bin/../lib/gcc/arm-atollic-eabi/5.3.1/../../../../arm-atollic-eabi/lib/armv7-m\libnosys.a(isatty.o)
                0x0002bf08                _isatty
 .text._lseek   0x0002bf18       0x10 c:/program files (x86)/atollic/truestudio for arm 7.1.0/armtools/bin/../lib/gcc/arm-atollic-eabi/5.3.1/../../../../arm-atollic-eabi/lib/armv7-m\libnosys.a(lseek.o)
                0x0002bf18                _lseek
 .text._read    0x0002bf28       0x10 c:/program files (x86)/atollic/truestudio for arm 7.1.0/armtools/bin/../lib/gcc/arm-atollic-eabi/5.3.1/../../../../arm-atollic-eabi/lib/armv7-m\libnosys.a(read.o)
                0x0002bf28                _read
 .text._sbrk    0x0002bf38       0x1c c:/program files (x86)/atollic/truestudio for arm 7.1.0/armtools/bin/../lib/gcc/arm-atollic-eabi/5.3.1/../../../../arm-atollic-eabi/lib/armv7-m\libnosys.a(sbrk.o)
                0x0002bf38                _sbrk
 .text._write   0x0002bf54       0x10 c:/program files (x86)/atollic/truestudio for arm 7.1.0/armtools/bin/../lib/gcc/arm-atollic-eabi/5.3.1/../../../../arm-atollic-eabi/lib/armv7-m\libnosys.a(write.o)
                0x0002bf54                _write
 *(.glue_7)
 .glue_7        0x0002bf64        0x0 linker stubs
 *(.glue_7t)
 .glue_7t       0x0002bf64        0x0 linker stubs
 *(.eh_frame)
 .eh_frame      0x0002bf64        0x0 c:/program files (x86)/atollic/truestudio for arm 7.1.0/armtools/bin/../lib/gcc/arm-atollic-eabi/5.3.1/armv7-m/crtbegin.o
 *(.init)
 .init          0x0002bf64        0x4 c:/program files (x86)/atollic/truestudio for arm 7.1.0/armtools/bin/../lib/gcc/arm-atollic-eabi/5.3.1/armv7-m/crti.o
                0x0002bf64                _init
 .init          0x0002bf68        0x8 c:/program files (x86)/atollic/truestudio for arm 7.1.0/armtools/bin/../lib/gcc/arm-atollic-eabi/5.3.1/armv7-m/crtn.o
 *(.fini)
 .fini          0x0002bf70        0x4 c:/program files (x86)/atollic/truestudio for arm 7.1.0/armtools/bin/../lib/gcc/arm-atollic-eabi/5.3.1/armv7-m/crti.o
                0x0002bf70                _fini
 .fini          0x0002bf74        0x8 c:/program files (x86)/atollic/truestudio for arm 7.1.0/armtools/bin/../lib/gcc/arm-atollic-eabi/5.3.1/armv7-m/crtn.o
                0x0002bf7c                . = ALIGN (0x4)
                0x0002bf7c                _etext = .

.vfp11_veneer   0x0002bf7c        0x0
 .vfp11_veneer  0x0002bf7c        0x0 linker stubs

.v4_bx          0x0002bf7c        0x0
 .v4_bx         0x0002bf7c        0x0 linker stubs

.iplt           0x0002bf7c        0x0
 .iplt          0x0002bf7c        0x0 c:/program files (x86)/atollic/truestudio for arm 7.1.0/armtools/bin/../lib/gcc/arm-atollic-eabi/5.3.1/armv7-m/crtbegin.o

.rodata         0x0002bf7c     0x1238
                0x0002bf7c                . = ALIGN (0x4)
 *(.rodata)
 .rodata        0x0002bf7c        0xf dlms\src\apdu.o
 *fill*         0x0002bf8b        0x1 
 .rodata        0x0002bf8c        0x6 dlms\src\cosem.o
 *fill*         0x0002bf92        0x2 
 .rodata        0x0002bf94       0x19 dlms\src\date.o
 *fill*         0x0002bfad        0x3 
 .rodata        0x0002bfb0       0x10 dlms\src\gxmd5.o
 .rodata        0x0002bfc0       0x14 dlms\src\gxsha1.o
 .rodata        0x0002bfd4       0x20 dlms\src\gxsha256.o
 .rodata        0x0002bff4      0x5d8 dlms\src\helpers.o
 .rodata        0x0002c5cc        0x6 dlms\src\server.o
 *fill*         0x0002c5d2        0x2 
 .rodata        0x0002c5d4       0x1c dlms\src\variant.o
 .rodata        0x0002c5f0       0xa7 src\main.o
 *fill*         0x0002c697        0x1 
 .rodata        0x0002c698        0xc c:/program files (x86)/atollic/truestudio for arm 7.1.0/armtools/bin/../lib/gcc/arm-atollic-eabi/5.3.1/../../../../arm-atollic-eabi/lib/armv7-m\libc_nano.a(lib_a-nano-vfscanf_i.o)
 *(.rodata*)
 .rodata.Rcon   0x0002c6a4        0xb dlms\src\ciphering.o
 *fill*         0x0002c6af        0x1 
 .rodata.Te0    0x0002c6b0      0x400 dlms\src\ciphering.o
                0x0002c6b0                Te0
 .rodata.DEFAUlT_BLOCK_CIPHER_KEY.6491
                0x0002cab0       0x10 dlms\src\ciphering.o
 .rodata.DEFAULT_SYSTEM_TITLE.6492
                0x0002cac0        0x8 dlms\src\ciphering.o
 .rodata.DEFAUlT_AUTHENTICATION_KEY.6493
                0x0002cac8       0x10 dlms\src\ciphering.o
 .rodata.FCS16Table
                0x0002cad8      0x200 dlms\src\dlms.o
                0x0002cad8                FCS16Table
 .rodata.LLC_SEND_BYTES
                0x0002ccd8        0x3 dlms\src\dlms.o
 *fill*         0x0002ccdb        0x1 
 .rodata.LLC_REPLY_BYTES
                0x0002ccdc        0x3 dlms\src\dlms.o
 *fill*         0x0002ccdf        0x1 
 .rodata.hexArray.7990
                0x0002cce0       0x10 dlms\src\dlms.o
 .rodata.sbox   0x0002ccf0      0x100 dlms\src\gxaes.o
 .rodata.Rcon   0x0002cdf0        0xb dlms\src\gxaes.o
 *fill*         0x0002cdfb        0x1 
 .rodata.sha256_k
                0x0002cdfc      0x100 dlms\src\gxsha256.o
                0x0002cdfc                sha256_k
 .rodata.DEFAULT_ASSOCIATION.8290
                0x0002cefc        0x6 dlms\src\server.o
 .rodata.str1.1
                0x0002cf02        0x2 c:/program files (x86)/atollic/truestudio for arm 7.1.0/armtools/bin/../lib/gcc/arm-atollic-eabi/5.3.1/../../../../arm-atollic-eabi/lib/armv7-m\libc_nano.a(lib_a-impure.o)
 .rodata._global_impure_ptr
                0x0002cf04        0x4 c:/program files (x86)/atollic/truestudio for arm 7.1.0/armtools/bin/../lib/gcc/arm-atollic-eabi/5.3.1/../../../../arm-atollic-eabi/lib/armv7-m\libc_nano.a(lib_a-impure.o)
                0x0002cf04                _global_impure_ptr
 .rodata._DAYS_BEFORE_MONTH
                0x0002cf08       0x30 c:/program files (x86)/atollic/truestudio for arm 7.1.0/armtools/bin/../lib/gcc/arm-atollic-eabi/5.3.1/../../../../arm-atollic-eabi/lib/armv7-m\libc_nano.a(lib_a-mktime.o)
 .rodata.DAYS_IN_MONTH
                0x0002cf38       0x30 c:/program files (x86)/atollic/truestudio for arm 7.1.0/armtools/bin/../lib/gcc/arm-atollic-eabi/5.3.1/../../../../arm-atollic-eabi/lib/armv7-m\libc_nano.a(lib_a-mktime.o)
 .rodata.__month_lengths
                0x0002cf68       0x60 c:/program files (x86)/atollic/truestudio for arm 7.1.0/armtools/bin/../lib/gcc/arm-atollic-eabi/5.3.1/../../../../arm-atollic-eabi/lib/armv7-m\libc_nano.a(lib_a-month_lengths.o)
                0x0002cf68                __month_lengths
 .rodata.str1.1
                0x0002cfc8       0x3c c:/program files (x86)/atollic/truestudio for arm 7.1.0/armtools/bin/../lib/gcc/arm-atollic-eabi/5.3.1/../../../../arm-atollic-eabi/lib/armv7-m\libc_nano.a(lib_a-tzset_r.o)
                                 0x4e (size before relaxing)
 .rodata.str1.1
                0x0002d004        0x4 c:/program files (x86)/atollic/truestudio for arm 7.1.0/armtools/bin/../lib/gcc/arm-atollic-eabi/5.3.1/../../../../arm-atollic-eabi/lib/armv7-m\libc_nano.a(lib_a-tzvars.o)
 .rodata.__sf_fake_stdin
                0x0002d004       0x20 c:/program files (x86)/atollic/truestudio for arm 7.1.0/armtools/bin/../lib/gcc/arm-atollic-eabi/5.3.1/../../../../arm-atollic-eabi/lib/armv7-m\libc_nano.a(lib_a-findfp.o)
                0x0002d004                __sf_fake_stdin
 .rodata.__sf_fake_stdout
                0x0002d024       0x20 c:/program files (x86)/atollic/truestudio for arm 7.1.0/armtools/bin/../lib/gcc/arm-atollic-eabi/5.3.1/../../../../arm-atollic-eabi/lib/armv7-m\libc_nano.a(lib_a-findfp.o)
                0x0002d024                __sf_fake_stdout
 .rodata.__sf_fake_stderr
                0x0002d044       0x20 c:/program files (x86)/atollic/truestudio for arm 7.1.0/armtools/bin/../lib/gcc/arm-atollic-eabi/5.3.1/../../../../arm-atollic-eabi/lib/armv7-m\libc_nano.a(lib_a-findfp.o)
                0x0002d044                __sf_fake_stderr
 .rodata.str1.1
                0x0002d064       0x11 c:/program files (x86)/atollic/truestudio for arm 7.1.0/armtools/bin/../lib/gcc/arm-atollic-eabi/5.3.1/../../../../arm-atollic-eabi/lib/armv7-m\libc_nano.a(lib_a-nano-svfprintf.o)
 .rodata.str1.1
                0x0002d075        0x4 c:/program files (x86)/atollic/truestudio for arm 7.1.0/armtools/bin/../lib/gcc/arm-atollic-eabi/5.3.1/../../../../arm-atollic-eabi/lib/armv7-m\libc_nano.a(lib_a-nano-svfscanf.o)
 .rodata.str1.1
                0x0002d075       0x22 c:/program files (x86)/atollic/truestudio for arm 7.1.0/armtools/bin/../lib/gcc/arm-atollic-eabi/5.3.1/../../../../arm-atollic-eabi/lib/armv7-m\libc_nano.a(lib_a-nano-vfprintf_i.o)
 .rodata.str1.1
                0x0002d097       0x1b c:/program files (x86)/atollic/truestudio for arm 7.1.0/armtools/bin/../lib/gcc/arm-atollic-eabi/5.3.1/../../../../arm-atollic-eabi/lib/armv7-m\libc_nano.a(lib_a-nano-vfscanf_i.o)
 .rodata._ctype_
                0x0002d0b2      0x101 c:/program files (x86)/atollic/truestudio for arm 7.1.0/armtools/bin/../lib/gcc/arm-atollic-eabi/5.3.1/../../../../arm-atollic-eabi/lib/armv7-m\libc_nano.a(lib_a-ctype_.o)
                0x0002d0b2                _ctype_
                0x0002d1b4                . = ALIGN (0x4)
 *fill*         0x0002d1b3        0x1 

.ARM.extab
 *(.ARM.extab* .gnu.linkonce.armextab.*)

.ARM            0x0002d1b4        0x8
                0x0002d1b4                __exidx_start = .
 *(.ARM.exidx*)
 .ARM.exidx     0x0002d1b4        0x8 c:/program files (x86)/atollic/truestudio for arm 7.1.0/armtools/bin/../lib/gcc/arm-atollic-eabi/5.3.1/armv7-m\libgcc.a(_udivmoddi4.o)
                0x0002d1bc                __exidx_end = .

.rel.dyn        0x0002d1bc        0x0
 .rel.iplt      0x0002d1bc        0x0 c:/program files (x86)/atollic/truestudio for arm 7.1.0/armtools/bin/../lib/gcc/arm-atollic-eabi/5.3.1/armv7-m/crtbegin.o

.preinit_array  0x0002d1bc        0x0
                0x0002d1bc                PROVIDE (__preinit_array_start, .)
 *(.preinit_array*)
                0x0002d1bc                PROVIDE (__preinit_array_end, .)

.init_array     0x0002d1bc        0x4
                0x0002d1bc                PROVIDE (__init_array_start, .)
 *(SORT(.init_array.*))
 *(.init_array*)
 .init_array    0x0002d1bc        0x4 c:/program files (x86)/atollic/truestudio for arm 7.1.0/armtools/bin/../lib/gcc/arm-atollic-eabi/5.3.1/armv7-m/crtbegin.o
                0x0002d1c0                PROVIDE (__init_array_end, .)

.fini_array     0x0002d1c0        0x4
                [!provide]                PROVIDE (__fini_array_start, .)
 *(SORT(.fini_array.*))
 *(.fini_array*)
 .fini_array    0x0002d1c0        0x4 c:/program files (x86)/atollic/truestudio for arm 7.1.0/armtools/bin/../lib/gcc/arm-atollic-eabi/5.3.1/armv7-m/crtbegin.o
                [!provide]                PROVIDE (__fini_array_end, .)
                0x0002d1c4                _sidata = LOADADDR (.data)

.data           0x10000000      0x13c load address 0x0002d1c4
                0x10000000                . = ALIGN (0x4)
                0x10000000                _sdata = .
 *(.data)
 *(.data*)
 .data.UART3TxEmpty
                0x10000000        0x1 UART\SRC\uart.o
                0x10000000                UART3TxEmpty
 *fill*         0x10000001        0x3 
 .data.padding.4805
                0x10000004       0x40 dlms\src\gxmd5.o
 .data.UNIX_TIME.9201
                0x10000044        0x6 dlms\src\gxset.o
 .data.lfsr     0x1000004a        0x2 dlms\src\helpers.o
                0x1000004a                lfsr
 .data.timeoutCount
                0x1000004c        0x4 modbus\modbus.o
                0x1000004c                timeoutCount
 .data.SERIAL_NUMBER
                0x10000050        0x4 src\main.o
                0x10000050                SERIAL_NUMBER
 .data.ALL_OBJECTS
                0x10000054       0x30 src\main.o
                0x10000054                ALL_OBJECTS
 .data.SystemCoreClock
                0x10000084        0x4 src\system_LPC17xx.o
                0x10000084                SystemCoreClock
 .data.impure_data
                0x10000088       0x60 c:/program files (x86)/atollic/truestudio for arm 7.1.0/armtools/bin/../lib/gcc/arm-atollic-eabi/5.3.1/../../../../arm-atollic-eabi/lib/armv7-m\libc_nano.a(lib_a-impure.o)
 .data._impure_ptr
                0x100000e8        0x4 c:/program files (x86)/atollic/truestudio for arm 7.1.0/armtools/bin/../lib/gcc/arm-atollic-eabi/5.3.1/../../../../arm-atollic-eabi/lib/armv7-m\libc_nano.a(lib_a-impure.o)
                0x100000e8                _impure_ptr
 .data._tzname  0x100000ec        0x8 c:/program files (x86)/atollic/truestudio for arm 7.1.0/armtools/bin/../lib/gcc/arm-atollic-eabi/5.3.1/../../../../arm-atollic-eabi/lib/armv7-m\libc_nano.a(lib_a-tzvars.o)
                0x100000ec                _tzname
 .data.tzinfo   0x100000f4       0x40 c:/program files (x86)/atollic/truestudio for arm 7.1.0/armtools/bin/../lib/gcc/arm-atollic-eabi/5.3.1/../../../../arm-atollic-eabi/lib/armv7-m\libc_nano.a(lib_a-gettzinfo.o)
 .data.__ctype_ptr__
                0x10000134        0x4 c:/program files (x86)/atollic/truestudio for arm 7.1.0/armtools/bin/../lib/gcc/arm-atollic-eabi/5.3.1/../../../../arm-atollic-eabi/lib/armv7-m\libc_nano.a(lib_a-ctype_.o)
                0x10000134                __ctype_ptr__
 .data.environ  0x10000138        0x4 c:/program files (x86)/atollic/truestudio for arm 7.1.0/armtools/bin/../lib/gcc/arm-atollic-eabi/5.3.1/../../../../arm-atollic-eabi/lib/armv7-m\libc_nano.a(lib_a-environ.o)
                0x10000138                environ
                0x1000013c                . = ALIGN (0x4)
                0x1000013c                _edata = .

.igot.plt       0x1000013c        0x0 load address 0x0002d300
 .igot.plt      0x1000013c        0x0 c:/program files (x86)/atollic/truestudio for arm 7.1.0/armtools/bin/../lib/gcc/arm-atollic-eabi/5.3.1/armv7-m/crtbegin.o
                0x1000013c                . = ALIGN (0x4)

.bss            0x10000140      0x708 load address 0x0002d300
                0x10000140                _sbss = .
                0x10000140                __bss_start__ = _sbss
 *(.bss)
 .bss           0x10000140       0x1c c:/program files (x86)/atollic/truestudio for arm 7.1.0/armtools/bin/../lib/gcc/arm-atollic-eabi/5.3.1/armv7-m/crtbegin.o
 *(.bss*)
 .bss.UART3Count
                0x1000015c        0x4 UART\SRC\uart.o
                0x1000015c                UART3Count
 .bss.state     0x10000160        0x4 dlms\src\gxaes.o
 .bss.RoundKey  0x10000164       0xb0 dlms\src\gxaes.o
 .bss.Key       0x10000214        0x4 dlms\src\gxaes.o
 .bss.usart1_count
                0x10000218        0x4 modbus\modbus.o
                0x10000218                usart1_count
 .bss.characters
                0x1000021c        0x4 src\main.o
 .bss.sendReply
                0x10000220        0x1 src\main.o
                0x10000220                sendReply
 *fill*         0x10000221        0x3 
 .bss.pdu       0x10000224      0x100 src\main.o
 .bss.frame     0x10000324       0x80 src\main.o
 *fill*         0x100003a4        0x4 
 .bss.ldn       0x100003a8       0x20 src\main.o
 .bss.association
                0x100003c8       0x80 src\main.o
 .bss.activePowerL1
                0x10000448       0x28 src\main.o
 .bss.apparentPowerL1
                0x10000470       0x28 src\main.o
 .bss.liPowerFactor
                0x10000498       0x28 src\main.o
 .bss.l1InstVoltage
                0x100004c0       0x28 src\main.o
 .bss.l2InstVoltage
                0x100004e8       0x28 src\main.o
 .bss.l3InstVoltage
                0x10000510       0x28 src\main.o
 .bss.l1InstCurrent
                0x10000538       0x28 src\main.o
 .bss.l2InstCurrent
                0x10000560       0x28 src\main.o
 .bss.l3InstCurrent
                0x10000588       0x28 src\main.o
 .bss.lineFreq  0x100005b0       0x28 src\main.o
 .bss.systick_count
                0x100005d8        0x4 systick_timer\systick_timer.o
 .bss.__malloc_sbrk_start
                0x100005dc        0x4 c:/program files (x86)/atollic/truestudio for arm 7.1.0/armtools/bin/../lib/gcc/arm-atollic-eabi/5.3.1/../../../../arm-atollic-eabi/lib/armv7-m\libc_nano.a(lib_a-nano-mallocr.o)
                0x100005dc                __malloc_sbrk_start
 .bss.__malloc_free_list
                0x100005e0        0x4 c:/program files (x86)/atollic/truestudio for arm 7.1.0/armtools/bin/../lib/gcc/arm-atollic-eabi/5.3.1/../../../../arm-atollic-eabi/lib/armv7-m\libc_nano.a(lib_a-nano-mallocr.o)
                0x100005e0                __malloc_free_list
 .bss.__tzname_dst
                0x100005e4        0xb c:/program files (x86)/atollic/truestudio for arm 7.1.0/armtools/bin/../lib/gcc/arm-atollic-eabi/5.3.1/../../../../arm-atollic-eabi/lib/armv7-m\libc_nano.a(lib_a-tzset_r.o)
 .bss.__tzname_std
                0x100005ef        0xb c:/program files (x86)/atollic/truestudio for arm 7.1.0/armtools/bin/../lib/gcc/arm-atollic-eabi/5.3.1/../../../../arm-atollic-eabi/lib/armv7-m\libc_nano.a(lib_a-tzset_r.o)
 *fill*         0x100005fa        0x2 
 .bss.prev_tzenv
                0x100005fc        0x4 c:/program files (x86)/atollic/truestudio for arm 7.1.0/armtools/bin/../lib/gcc/arm-atollic-eabi/5.3.1/../../../../arm-atollic-eabi/lib/armv7-m\libc_nano.a(lib_a-tzset_r.o)
 .bss._daylight
                0x10000600        0x4 c:/program files (x86)/atollic/truestudio for arm 7.1.0/armtools/bin/../lib/gcc/arm-atollic-eabi/5.3.1/../../../../arm-atollic-eabi/lib/armv7-m\libc_nano.a(lib_a-tzvars.o)
                0x10000600                _daylight
 .bss._timezone
                0x10000604        0x4 c:/program files (x86)/atollic/truestudio for arm 7.1.0/armtools/bin/../lib/gcc/arm-atollic-eabi/5.3.1/../../../../arm-atollic-eabi/lib/armv7-m\libc_nano.a(lib_a-tzvars.o)
                0x10000604                _timezone
 .bss.initial_env
                0x10000608        0x4 c:/program files (x86)/atollic/truestudio for arm 7.1.0/armtools/bin/../lib/gcc/arm-atollic-eabi/5.3.1/../../../../arm-atollic-eabi/lib/armv7-m\libc_nano.a(lib_a-environ.o)
 .bss.heap_end.4167
                0x1000060c        0x4 c:/program files (x86)/atollic/truestudio for arm 7.1.0/armtools/bin/../lib/gcc/arm-atollic-eabi/5.3.1/../../../../arm-atollic-eabi/lib/armv7-m\libnosys.a(sbrk.o)
 *(COMMON)
 COMMON         0x10000610       0x44 UART\SRC\uart.o
                0x10000610                UART3Status
                0x10000614                UART3Buffer
 COMMON         0x10000654       0x14 dlms\src\dlms.o
                0x10000654                pduAttributes
 COMMON         0x10000668        0x4 dlms\src\helpers.o
                0x10000668                bit
 COMMON         0x1000066c       0x8c modbus\modbus.o
                0x1000066c                req
                0x10000674                usart1_status
                0x10000678                usart1_buffer
 COMMON         0x100006f8      0x14c src\main.o
                0x100006f8                settings
                0x10000838                reply
 COMMON         0x10000844        0x4 c:/program files (x86)/atollic/truestudio for arm 7.1.0/armtools/bin/../lib/gcc/arm-atollic-eabi/5.3.1/../../../../arm-atollic-eabi/lib/armv7-m\libc_nano.a(lib_a-reent.o)
                0x10000844                errno
                0x10000848                . = ALIGN (0x4)
                0x10000848                _ebss = .
                0x10000848                __bss_end__ = _ebss

._user_heap_stack
                0x10000848      0x100 load address 0x0002d300
                0x10000848                . = ALIGN (0x4)
                0x10000848                PROVIDE (end, .)
                [!provide]                PROVIDE (_end, .)
                0x10000848                . = (. + _Min_Heap_Size)
                0x10000948                . = (. + _Min_Stack_Size)
 *fill*         0x10000848      0x100 
                0x10000948                . = ALIGN (0x4)

.memory_b1_text
 *(.mb1text)
 *(.mb1text*)
 *(.mb1rodata)
 *(.mb1rodata*)

/DISCARD/
 libc.a(*)
 libm.a(*)
 libgcc.a(*)

.ARM.attributes
                0x00000000       0x29
 *(.ARM.attributes)
 .ARM.attributes
                0x00000000       0x1d c:/program files (x86)/atollic/truestudio for arm 7.1.0/armtools/bin/../lib/gcc/arm-atollic-eabi/5.3.1/armv7-m/crti.o
 .ARM.attributes
                0x0000001d       0x2d c:/program files (x86)/atollic/truestudio for arm 7.1.0/armtools/bin/../lib/gcc/arm-atollic-eabi/5.3.1/armv7-m/crtbegin.o
 .ARM.attributes
                0x0000004a       0x33 UART\SRC\uart.o
 .ARM.attributes
                0x0000007d       0x33 dlms\src\apdu.o
 .ARM.attributes
                0x000000b0       0x33 dlms\src\bitarray.o
 .ARM.attributes
                0x000000e3       0x33 dlms\src\bytebuffer.o
 .ARM.attributes
                0x00000116       0x33 dlms\src\ciphering.o
 .ARM.attributes
                0x00000149       0x33 dlms\src\cosem.o
 .ARM.attributes
                0x0000017c       0x33 dlms\src\datainfo.o
 .ARM.attributes
                0x000001af       0x33 dlms\src\date.o
 .ARM.attributes
                0x000001e2       0x33 dlms\src\dlms.o
 .ARM.attributes
                0x00000215       0x33 dlms\src\dlmsSettings.o
 .ARM.attributes
                0x00000248       0x33 dlms\src\gxaes.o
 .ARM.attributes
                0x0000027b       0x33 dlms\src\gxarray.o
 .ARM.attributes
                0x000002ae       0x33 dlms\src\gxget.o
 .ARM.attributes
                0x000002e1       0x33 dlms\src\gxinvoke.o
 .ARM.attributes
                0x00000314       0x33 dlms\src\gxkey.o
 .ARM.attributes
                0x00000347       0x33 dlms\src\gxmd5.o
 .ARM.attributes
                0x0000037a       0x33 dlms\src\gxobjects.o
 .ARM.attributes
                0x000003ad       0x33 dlms\src\gxset.o
 .ARM.attributes
                0x000003e0       0x33 dlms\src\gxsha1.o
 .ARM.attributes
                0x00000413       0x33 dlms\src\gxsha256.o
 .ARM.attributes
                0x00000446       0x33 dlms\src\gxvalueeventargs.o
 .ARM.attributes
                0x00000479       0x33 dlms\src\helpers.o
 .ARM.attributes
                0x000004ac       0x33 dlms\src\objectarray.o
 .ARM.attributes
                0x000004df       0x33 dlms\src\parameters.o
 .ARM.attributes
                0x00000512       0x33 dlms\src\replydata.o
 .ARM.attributes
                0x00000545       0x33 dlms\src\server.o
 .ARM.attributes
                0x00000578       0x33 dlms\src\variant.o
 .ARM.attributes
                0x000005ab       0x33 energymeter\LT_energymeter.o
 .ARM.attributes
                0x000005de       0x33 modbus\modbus.o
 .ARM.attributes
                0x00000611       0x33 src\main.o
 .ARM.attributes
                0x00000644       0x21 src\startup_LPC17xx.o
 .ARM.attributes
                0x00000665       0x33 src\system_LPC17xx.o
 .ARM.attributes
                0x00000698       0x33 systick_timer\systick_timer.o
 .ARM.attributes
                0x000006cb       0x2d c:/program files (x86)/atollic/truestudio for arm 7.1.0/armtools/bin/../lib/gcc/arm-atollic-eabi/5.3.1/../../../../arm-atollic-eabi/lib/armv7-m\libc_nano.a(lib_a-calloc.o)
 .ARM.attributes
                0x000006f8       0x2d c:/program files (x86)/atollic/truestudio for arm 7.1.0/armtools/bin/../lib/gcc/arm-atollic-eabi/5.3.1/../../../../arm-atollic-eabi/lib/armv7-m\libc_nano.a(lib_a-impure.o)
 .ARM.attributes
                0x00000725       0x2d c:/program files (x86)/atollic/truestudio for arm 7.1.0/armtools/bin/../lib/gcc/arm-atollic-eabi/5.3.1/../../../../arm-atollic-eabi/lib/armv7-m\libc_nano.a(lib_a-init.o)
 .ARM.attributes
                0x00000752       0x2d c:/program files (x86)/atollic/truestudio for arm 7.1.0/armtools/bin/../lib/gcc/arm-atollic-eabi/5.3.1/../../../../arm-atollic-eabi/lib/armv7-m\libc_nano.a(lib_a-lcltime.o)
 .ARM.attributes
                0x0000077f       0x2d c:/program files (x86)/atollic/truestudio for arm 7.1.0/armtools/bin/../lib/gcc/arm-atollic-eabi/5.3.1/../../../../arm-atollic-eabi/lib/armv7-m\libc_nano.a(lib_a-lcltime_r.o)
 .ARM.attributes
                0x000007ac       0x2d c:/program files (x86)/atollic/truestudio for arm 7.1.0/armtools/bin/../lib/gcc/arm-atollic-eabi/5.3.1/../../../../arm-atollic-eabi/lib/armv7-m\libc_nano.a(lib_a-malloc.o)
 .ARM.attributes
                0x000007d9       0x2d c:/program files (x86)/atollic/truestudio for arm 7.1.0/armtools/bin/../lib/gcc/arm-atollic-eabi/5.3.1/../../../../arm-atollic-eabi/lib/armv7-m\libc_nano.a(lib_a-memcmp.o)
 .ARM.attributes
                0x00000806       0x2d c:/program files (x86)/atollic/truestudio for arm 7.1.0/armtools/bin/../lib/gcc/arm-atollic-eabi/5.3.1/../../../../arm-atollic-eabi/lib/armv7-m\libc_nano.a(lib_a-memcpy-stub.o)
 .ARM.attributes
                0x00000833       0x2d c:/program files (x86)/atollic/truestudio for arm 7.1.0/armtools/bin/../lib/gcc/arm-atollic-eabi/5.3.1/../../../../arm-atollic-eabi/lib/armv7-m\libc_nano.a(lib_a-memmove.o)
 .ARM.attributes
                0x00000860       0x2d c:/program files (x86)/atollic/truestudio for arm 7.1.0/armtools/bin/../lib/gcc/arm-atollic-eabi/5.3.1/../../../../arm-atollic-eabi/lib/armv7-m\libc_nano.a(lib_a-memset.o)
 .ARM.attributes
                0x0000088d       0x2d c:/program files (x86)/atollic/truestudio for arm 7.1.0/armtools/bin/../lib/gcc/arm-atollic-eabi/5.3.1/../../../../arm-atollic-eabi/lib/armv7-m\libc_nano.a(lib_a-mktime.o)
 .ARM.attributes
                0x000008ba       0x2d c:/program files (x86)/atollic/truestudio for arm 7.1.0/armtools/bin/../lib/gcc/arm-atollic-eabi/5.3.1/../../../../arm-atollic-eabi/lib/armv7-m\libc_nano.a(lib_a-month_lengths.o)
 .ARM.attributes
                0x000008e7       0x2d c:/program files (x86)/atollic/truestudio for arm 7.1.0/armtools/bin/../lib/gcc/arm-atollic-eabi/5.3.1/../../../../arm-atollic-eabi/lib/armv7-m\libc_nano.a(lib_a-nano-callocr.o)
 .ARM.attributes
                0x00000914       0x2d c:/program files (x86)/atollic/truestudio for arm 7.1.0/armtools/bin/../lib/gcc/arm-atollic-eabi/5.3.1/../../../../arm-atollic-eabi/lib/armv7-m\libc_nano.a(lib_a-nano-freer.o)
 .ARM.attributes
                0x00000941       0x2d c:/program files (x86)/atollic/truestudio for arm 7.1.0/armtools/bin/../lib/gcc/arm-atollic-eabi/5.3.1/../../../../arm-atollic-eabi/lib/armv7-m\libc_nano.a(lib_a-nano-mallocr.o)
 .ARM.attributes
                0x0000096e       0x2d c:/program files (x86)/atollic/truestudio for arm 7.1.0/armtools/bin/../lib/gcc/arm-atollic-eabi/5.3.1/../../../../arm-atollic-eabi/lib/armv7-m\libc_nano.a(lib_a-puts.o)
 .ARM.attributes
                0x0000099b       0x2d c:/program files (x86)/atollic/truestudio for arm 7.1.0/armtools/bin/../lib/gcc/arm-atollic-eabi/5.3.1/../../../../arm-atollic-eabi/lib/armv7-m\libc_nano.a(lib_a-realloc.o)
 .ARM.attributes
                0x000009c8       0x2d c:/program files (x86)/atollic/truestudio for arm 7.1.0/armtools/bin/../lib/gcc/arm-atollic-eabi/5.3.1/../../../../arm-atollic-eabi/lib/armv7-m\libc_nano.a(lib_a-sbrkr.o)
 .ARM.attributes
                0x000009f5       0x2d c:/program files (x86)/atollic/truestudio for arm 7.1.0/armtools/bin/../lib/gcc/arm-atollic-eabi/5.3.1/../../../../arm-atollic-eabi/lib/armv7-m\libc_nano.a(lib_a-sprintf.o)
 .ARM.attributes
                0x00000a22       0x2d c:/program files (x86)/atollic/truestudio for arm 7.1.0/armtools/bin/../lib/gcc/arm-atollic-eabi/5.3.1/../../../../arm-atollic-eabi/lib/armv7-m\libc_nano.a(lib_a-sscanf.o)
 .ARM.attributes
                0x00000a4f       0x2d c:/program files (x86)/atollic/truestudio for arm 7.1.0/armtools/bin/../lib/gcc/arm-atollic-eabi/5.3.1/../../../../arm-atollic-eabi/lib/armv7-m\libc_nano.a(lib_a-stdio.o)
 .ARM.attributes
                0x00000a7c       0x1b c:/program files (x86)/atollic/truestudio for arm 7.1.0/armtools/bin/../lib/gcc/arm-atollic-eabi/5.3.1/../../../../arm-atollic-eabi/lib/armv7-m\libc_nano.a(lib_a-strcmp.o)
 .ARM.attributes
                0x00000a97       0x17 c:/program files (x86)/atollic/truestudio for arm 7.1.0/armtools/bin/../lib/gcc/arm-atollic-eabi/5.3.1/../../../../arm-atollic-eabi/lib/armv7-m\libc_nano.a(lib_a-strlen.o)
 .ARM.attributes
                0x00000aae       0x2d c:/program files (x86)/atollic/truestudio for arm 7.1.0/armtools/bin/../lib/gcc/arm-atollic-eabi/5.3.1/../../../../arm-atollic-eabi/lib/armv7-m\libc_nano.a(lib_a-tzcalc_limits.o)
 .ARM.attributes
                0x00000adb       0x2d c:/program files (x86)/atollic/truestudio for arm 7.1.0/armtools/bin/../lib/gcc/arm-atollic-eabi/5.3.1/../../../../arm-atollic-eabi/lib/armv7-m\libc_nano.a(lib_a-tzlock.o)
 .ARM.attributes
                0x00000b08       0x2d c:/program files (x86)/atollic/truestudio for arm 7.1.0/armtools/bin/../lib/gcc/arm-atollic-eabi/5.3.1/../../../../arm-atollic-eabi/lib/armv7-m\libc_nano.a(lib_a-tzset.o)
 .ARM.attributes
                0x00000b35       0x2d c:/program files (x86)/atollic/truestudio for arm 7.1.0/armtools/bin/../lib/gcc/arm-atollic-eabi/5.3.1/../../../../arm-atollic-eabi/lib/armv7-m\libc_nano.a(lib_a-tzset_r.o)
 .ARM.attributes
                0x00000b62       0x2d c:/program files (x86)/atollic/truestudio for arm 7.1.0/armtools/bin/../lib/gcc/arm-atollic-eabi/5.3.1/../../../../arm-atollic-eabi/lib/armv7-m\libc_nano.a(lib_a-tzvars.o)
 .ARM.attributes
                0x00000b8f       0x2d c:/program files (x86)/atollic/truestudio for arm 7.1.0/armtools/bin/../lib/gcc/arm-atollic-eabi/5.3.1/../../../../arm-atollic-eabi/lib/armv7-m\libc_nano.a(lib_a-wbuf.o)
 .ARM.attributes
                0x00000bbc       0x2d c:/program files (x86)/atollic/truestudio for arm 7.1.0/armtools/bin/../lib/gcc/arm-atollic-eabi/5.3.1/../../../../arm-atollic-eabi/lib/armv7-m\libc_nano.a(lib_a-writer.o)
 .ARM.attributes
                0x00000be9       0x2d c:/program files (x86)/atollic/truestudio for arm 7.1.0/armtools/bin/../lib/gcc/arm-atollic-eabi/5.3.1/../../../../arm-atollic-eabi/lib/armv7-m\libc_nano.a(lib_a-wsetup.o)
 .ARM.attributes
                0x00000c16       0x2d c:/program files (x86)/atollic/truestudio for arm 7.1.0/armtools/bin/../lib/gcc/arm-atollic-eabi/5.3.1/../../../../arm-atollic-eabi/lib/armv7-m\libc_nano.a(lib_a-closer.o)
 .ARM.attributes
                0x00000c43       0x2d c:/program files (x86)/atollic/truestudio for arm 7.1.0/armtools/bin/../lib/gcc/arm-atollic-eabi/5.3.1/../../../../arm-atollic-eabi/lib/armv7-m\libc_nano.a(lib_a-div.o)
 .ARM.attributes
                0x00000c70       0x2d c:/program files (x86)/atollic/truestudio for arm 7.1.0/armtools/bin/../lib/gcc/arm-atollic-eabi/5.3.1/../../../../arm-atollic-eabi/lib/armv7-m\libc_nano.a(lib_a-fflush.o)
 .ARM.attributes
                0x00000c9d       0x2d c:/program files (x86)/atollic/truestudio for arm 7.1.0/armtools/bin/../lib/gcc/arm-atollic-eabi/5.3.1/../../../../arm-atollic-eabi/lib/armv7-m\libc_nano.a(lib_a-findfp.o)
 .ARM.attributes
                0x00000cca       0x2d c:/program files (x86)/atollic/truestudio for arm 7.1.0/armtools/bin/../lib/gcc/arm-atollic-eabi/5.3.1/../../../../arm-atollic-eabi/lib/armv7-m\libc_nano.a(lib_a-fwalk.o)
 .ARM.attributes
                0x00000cf7       0x2d c:/program files (x86)/atollic/truestudio for arm 7.1.0/armtools/bin/../lib/gcc/arm-atollic-eabi/5.3.1/../../../../arm-atollic-eabi/lib/armv7-m\libc_nano.a(lib_a-getenv_r.o)
 .ARM.attributes
                0x00000d24       0x2d c:/program files (x86)/atollic/truestudio for arm 7.1.0/armtools/bin/../lib/gcc/arm-atollic-eabi/5.3.1/../../../../arm-atollic-eabi/lib/armv7-m\libc_nano.a(lib_a-gettzinfo.o)
 .ARM.attributes
                0x00000d51       0x2d c:/program files (x86)/atollic/truestudio for arm 7.1.0/armtools/bin/../lib/gcc/arm-atollic-eabi/5.3.1/../../../../arm-atollic-eabi/lib/armv7-m\libc_nano.a(lib_a-gmtime_r.o)
 .ARM.attributes
                0x00000d7e       0x2d c:/program files (x86)/atollic/truestudio for arm 7.1.0/armtools/bin/../lib/gcc/arm-atollic-eabi/5.3.1/../../../../arm-atollic-eabi/lib/armv7-m\libc_nano.a(lib_a-lseekr.o)
 .ARM.attributes
                0x00000dab       0x2d c:/program files (x86)/atollic/truestudio for arm 7.1.0/armtools/bin/../lib/gcc/arm-atollic-eabi/5.3.1/../../../../arm-atollic-eabi/lib/armv7-m\libc_nano.a(lib_a-makebuf.o)
 .ARM.attributes
                0x00000dd8       0x2d c:/program files (x86)/atollic/truestudio for arm 7.1.0/armtools/bin/../lib/gcc/arm-atollic-eabi/5.3.1/../../../../arm-atollic-eabi/lib/armv7-m\libc_nano.a(lib_a-mlock.o)
 .ARM.attributes
                0x00000e05       0x2d c:/program files (x86)/atollic/truestudio for arm 7.1.0/armtools/bin/../lib/gcc/arm-atollic-eabi/5.3.1/../../../../arm-atollic-eabi/lib/armv7-m\libc_nano.a(lib_a-nano-reallocr.o)
 .ARM.attributes
                0x00000e32       0x2d c:/program files (x86)/atollic/truestudio for arm 7.1.0/armtools/bin/../lib/gcc/arm-atollic-eabi/5.3.1/../../../../arm-atollic-eabi/lib/armv7-m\libc_nano.a(lib_a-nano-svfprintf.o)
 .ARM.attributes
                0x00000e5f       0x2d c:/program files (x86)/atollic/truestudio for arm 7.1.0/armtools/bin/../lib/gcc/arm-atollic-eabi/5.3.1/../../../../arm-atollic-eabi/lib/armv7-m\libc_nano.a(lib_a-nano-svfscanf.o)
 .ARM.attributes
                0x00000e8c       0x2d c:/program files (x86)/atollic/truestudio for arm 7.1.0/armtools/bin/../lib/gcc/arm-atollic-eabi/5.3.1/../../../../arm-atollic-eabi/lib/armv7-m\libc_nano.a(lib_a-nano-vfprintf_i.o)
 .ARM.attributes
                0x00000eb9       0x2d c:/program files (x86)/atollic/truestudio for arm 7.1.0/armtools/bin/../lib/gcc/arm-atollic-eabi/5.3.1/../../../../arm-atollic-eabi/lib/armv7-m\libc_nano.a(lib_a-nano-vfscanf_i.o)
 .ARM.attributes
                0x00000ee6       0x2d c:/program files (x86)/atollic/truestudio for arm 7.1.0/armtools/bin/../lib/gcc/arm-atollic-eabi/5.3.1/../../../../arm-atollic-eabi/lib/armv7-m\libc_nano.a(lib_a-readr.o)
 .ARM.attributes
                0x00000f13       0x2d c:/program files (x86)/atollic/truestudio for arm 7.1.0/armtools/bin/../lib/gcc/arm-atollic-eabi/5.3.1/../../../../arm-atollic-eabi/lib/armv7-m\libc_nano.a(lib_a-reent.o)
 .ARM.attributes
                0x00000f40       0x2d c:/program files (x86)/atollic/truestudio for arm 7.1.0/armtools/bin/../lib/gcc/arm-atollic-eabi/5.3.1/../../../../arm-atollic-eabi/lib/armv7-m\libc_nano.a(lib_a-sccl.o)
 .ARM.attributes
                0x00000f6d       0x2d c:/program files (x86)/atollic/truestudio for arm 7.1.0/armtools/bin/../lib/gcc/arm-atollic-eabi/5.3.1/../../../../arm-atollic-eabi/lib/armv7-m\libc_nano.a(lib_a-strcpy.o)
 .ARM.attributes
                0x00000f9a       0x2d c:/program files (x86)/atollic/truestudio for arm 7.1.0/armtools/bin/../lib/gcc/arm-atollic-eabi/5.3.1/../../../../arm-atollic-eabi/lib/armv7-m\libc_nano.a(lib_a-strncmp.o)
 .ARM.attributes
                0x00000fc7       0x2d c:/program files (x86)/atollic/truestudio for arm 7.1.0/armtools/bin/../lib/gcc/arm-atollic-eabi/5.3.1/../../../../arm-atollic-eabi/lib/armv7-m\libc_nano.a(lib_a-strtol.o)
 .ARM.attributes
                0x00000ff4       0x2d c:/program files (x86)/atollic/truestudio for arm 7.1.0/armtools/bin/../lib/gcc/arm-atollic-eabi/5.3.1/../../../../arm-atollic-eabi/lib/armv7-m\libc_nano.a(lib_a-strtoul.o)
 .ARM.attributes
                0x00001021       0x2d c:/program files (x86)/atollic/truestudio for arm 7.1.0/armtools/bin/../lib/gcc/arm-atollic-eabi/5.3.1/../../../../arm-atollic-eabi/lib/armv7-m\libc_nano.a(lib_a-ungetc.o)
 .ARM.attributes
                0x0000104e       0x2d c:/program files (x86)/atollic/truestudio for arm 7.1.0/armtools/bin/../lib/gcc/arm-atollic-eabi/5.3.1/../../../../arm-atollic-eabi/lib/armv7-m\libc_nano.a(lib_a-ctype_.o)
 .ARM.attributes
                0x0000107b       0x2d c:/program files (x86)/atollic/truestudio for arm 7.1.0/armtools/bin/../lib/gcc/arm-atollic-eabi/5.3.1/../../../../arm-atollic-eabi/lib/armv7-m\libc_nano.a(lib_a-environ.o)
 .ARM.attributes
                0x000010a8       0x2d c:/program files (x86)/atollic/truestudio for arm 7.1.0/armtools/bin/../lib/gcc/arm-atollic-eabi/5.3.1/../../../../arm-atollic-eabi/lib/armv7-m\libc_nano.a(lib_a-envlock.o)
 .ARM.attributes
                0x000010d5       0x2d c:/program files (x86)/atollic/truestudio for arm 7.1.0/armtools/bin/../lib/gcc/arm-atollic-eabi/5.3.1/../../../../arm-atollic-eabi/lib/armv7-m\libc_nano.a(lib_a-fstatr.o)
 .ARM.attributes
                0x00001102       0x2d c:/program files (x86)/atollic/truestudio for arm 7.1.0/armtools/bin/../lib/gcc/arm-atollic-eabi/5.3.1/../../../../arm-atollic-eabi/lib/armv7-m\libc_nano.a(lib_a-isattyr.o)
 .ARM.attributes
                0x0000112f       0x2d c:/program files (x86)/atollic/truestudio for arm 7.1.0/armtools/bin/../lib/gcc/arm-atollic-eabi/5.3.1/../../../../arm-atollic-eabi/lib/armv7-m\libc_nano.a(lib_a-memchr-stub.o)
 .ARM.attributes
                0x0000115c       0x2d c:/program files (x86)/atollic/truestudio for arm 7.1.0/armtools/bin/../lib/gcc/arm-atollic-eabi/5.3.1/../../../../arm-atollic-eabi/lib/armv7-m\libc_nano.a(lib_a-nano-msizer.o)
 .ARM.attributes
                0x00001189       0x1d c:/program files (x86)/atollic/truestudio for arm 7.1.0/armtools/bin/../lib/gcc/arm-atollic-eabi/5.3.1/armv7-m\libgcc.a(_arm_addsubdf3.o)
 .ARM.attributes
                0x000011a6       0x1d c:/program files (x86)/atollic/truestudio for arm 7.1.0/armtools/bin/../lib/gcc/arm-atollic-eabi/5.3.1/armv7-m\libgcc.a(_arm_muldivdf3.o)
 .ARM.attributes
                0x000011c3       0x1d c:/program files (x86)/atollic/truestudio for arm 7.1.0/armtools/bin/../lib/gcc/arm-atollic-eabi/5.3.1/armv7-m\libgcc.a(_arm_fixdfsi.o)
 .ARM.attributes
                0x000011e0       0x1d c:/program files (x86)/atollic/truestudio for arm 7.1.0/armtools/bin/../lib/gcc/arm-atollic-eabi/5.3.1/armv7-m\libgcc.a(_arm_fixunsdfsi.o)
 .ARM.attributes
                0x000011fd       0x1d c:/program files (x86)/atollic/truestudio for arm 7.1.0/armtools/bin/../lib/gcc/arm-atollic-eabi/5.3.1/armv7-m\libgcc.a(_arm_fixsfsi.o)
 .ARM.attributes
                0x0000121a       0x1d c:/program files (x86)/atollic/truestudio for arm 7.1.0/armtools/bin/../lib/gcc/arm-atollic-eabi/5.3.1/armv7-m\libgcc.a(_aeabi_ldivmod.o)
 .ARM.attributes
                0x00001237       0x2d c:/program files (x86)/atollic/truestudio for arm 7.1.0/armtools/bin/../lib/gcc/arm-atollic-eabi/5.3.1/armv7-m\libgcc.a(_udivmoddi4.o)
 .ARM.attributes
                0x00001264       0x1d c:/program files (x86)/atollic/truestudio for arm 7.1.0/armtools/bin/../lib/gcc/arm-atollic-eabi/5.3.1/armv7-m\libgcc.a(_dvmd_tls.o)
 .ARM.attributes
                0x00001281       0x2d c:/program files (x86)/atollic/truestudio for arm 7.1.0/armtools/bin/../lib/gcc/arm-atollic-eabi/5.3.1/../../../../arm-atollic-eabi/lib/armv7-m\libnosys.a(close.o)
 .ARM.attributes
                0x000012ae       0x2d c:/program files (x86)/atollic/truestudio for arm 7.1.0/armtools/bin/../lib/gcc/arm-atollic-eabi/5.3.1/../../../../arm-atollic-eabi/lib/armv7-m\libnosys.a(fstat.o)
 .ARM.attributes
                0x000012db       0x2d c:/program files (x86)/atollic/truestudio for arm 7.1.0/armtools/bin/../lib/gcc/arm-atollic-eabi/5.3.1/../../../../arm-atollic-eabi/lib/armv7-m\libnosys.a(isatty.o)
 .ARM.attributes
                0x00001308       0x2d c:/program files (x86)/atollic/truestudio for arm 7.1.0/armtools/bin/../lib/gcc/arm-atollic-eabi/5.3.1/../../../../arm-atollic-eabi/lib/armv7-m\libnosys.a(lseek.o)
 .ARM.attributes
                0x00001335       0x2d c:/program files (x86)/atollic/truestudio for arm 7.1.0/armtools/bin/../lib/gcc/arm-atollic-eabi/5.3.1/../../../../arm-atollic-eabi/lib/armv7-m\libnosys.a(read.o)
 .ARM.attributes
                0x00001362       0x2d c:/program files (x86)/atollic/truestudio for arm 7.1.0/armtools/bin/../lib/gcc/arm-atollic-eabi/5.3.1/../../../../arm-atollic-eabi/lib/armv7-m\libnosys.a(sbrk.o)
 .ARM.attributes
                0x0000138f       0x2d c:/program files (x86)/atollic/truestudio for arm 7.1.0/armtools/bin/../lib/gcc/arm-atollic-eabi/5.3.1/../../../../arm-atollic-eabi/lib/armv7-m\libnosys.a(write.o)
 .ARM.attributes
                0x000013bc       0x1d c:/program files (x86)/atollic/truestudio for arm 7.1.0/armtools/bin/../lib/gcc/arm-atollic-eabi/5.3.1/armv7-m/crtn.o
OUTPUT(DlmsModbusConverter.elf elf32-littlearm)

.debug_info     0x00000000    0x272e3
 .debug_info    0x00000000      0xb6b UART\SRC\uart.o
 .debug_info    0x00000b6b     0x1208 dlms\src\apdu.o
 .debug_info    0x00001d73      0x613 dlms\src\bitarray.o
 .debug_info    0x00002386     0x1141 dlms\src\bytebuffer.o
 .debug_info    0x000034c7      0xf70 dlms\src\ciphering.o
 .debug_info    0x00004437      0xc3b dlms\src\cosem.o
 .debug_info    0x00005072      0x153 dlms\src\datainfo.o
 .debug_info    0x000051c5      0x93e dlms\src\date.o
 .debug_info    0x00005b03     0x37d5 dlms\src\dlms.o
 .debug_info    0x000092d8     0x141a dlms\src\dlmsSettings.o
 .debug_info    0x0000a6f2      0x5f8 dlms\src\gxaes.o
 .debug_info    0x0000acea      0x4cd dlms\src\gxarray.o
 .debug_info    0x0000b1b7     0x53cb dlms\src\gxget.o
 .debug_info    0x00010582     0x2907 dlms\src\gxinvoke.o
 .debug_info    0x00012e89      0x16f dlms\src\gxkey.o
 .debug_info    0x00012ff8      0x645 dlms\src\gxmd5.o
 .debug_info    0x0001363d     0x3427 dlms\src\gxobjects.o
 .debug_info    0x00016a64     0x4ff7 dlms\src\gxset.o
 .debug_info    0x0001ba5b      0x2b6 dlms\src\gxsha1.o
 .debug_info    0x0001bd11      0x396 dlms\src\gxsha256.o
 .debug_info    0x0001c0a7      0x8fc dlms\src\gxvalueeventargs.o
 .debug_info    0x0001c9a3      0xda6 dlms\src\helpers.o
 .debug_info    0x0001d749      0x948 dlms\src\objectarray.o
 .debug_info    0x0001e091      0xa83 dlms\src\parameters.o
 .debug_info    0x0001eb14      0x71e dlms\src\replydata.o
 .debug_info    0x0001f232     0x2f3c dlms\src\server.o
 .debug_info    0x0002216e     0x16c3 dlms\src\variant.o
 .debug_info    0x00023831      0x533 energymeter\LT_energymeter.o
 .debug_info    0x00023d64      0xc09 modbus\modbus.o
 .debug_info    0x0002496d     0x22ae src\main.o
 .debug_info    0x00026c1b       0x71 src\startup_LPC17xx.o
 .debug_info    0x00026c8c      0x4a0 src\system_LPC17xx.o
 .debug_info    0x0002712c      0x1b7 systick_timer\systick_timer.o

.debug_abbrev   0x00000000     0x3947
 .debug_abbrev  0x00000000      0x1e9 UART\SRC\uart.o
 .debug_abbrev  0x000001e9      0x1b9 dlms\src\apdu.o
 .debug_abbrev  0x000003a2      0x159 dlms\src\bitarray.o
 .debug_abbrev  0x000004fb      0x21d dlms\src\bytebuffer.o
 .debug_abbrev  0x00000718      0x22a dlms\src\ciphering.o
 .debug_abbrev  0x00000942      0x1a2 dlms\src\cosem.o
 .debug_abbrev  0x00000ae4       0x9f dlms\src\datainfo.o
 .debug_abbrev  0x00000b83      0x1fc dlms\src\date.o
 .debug_abbrev  0x00000d7f      0x2bb dlms\src\dlms.o
 .debug_abbrev  0x0000103a      0x27d dlms\src\dlmsSettings.o
 .debug_abbrev  0x000012b7      0x17f dlms\src\gxaes.o
 .debug_abbrev  0x00001436      0x14f dlms\src\gxarray.o
 .debug_abbrev  0x00001585      0x228 dlms\src\gxget.o
 .debug_abbrev  0x000017ad      0x264 dlms\src\gxinvoke.o
 .debug_abbrev  0x00001a11       0xbb dlms\src\gxkey.o
 .debug_abbrev  0x00001acc      0x11d dlms\src\gxmd5.o
 .debug_abbrev  0x00001be9      0x264 dlms\src\gxobjects.o
 .debug_abbrev  0x00001e4d      0x22d dlms\src\gxset.o
 .debug_abbrev  0x0000207a       0xf2 dlms\src\gxsha1.o
 .debug_abbrev  0x0000216c       0xf8 dlms\src\gxsha256.o
 .debug_abbrev  0x00002264      0x1c9 dlms\src\gxvalueeventargs.o
 .debug_abbrev  0x0000242d      0x28b dlms\src\helpers.o
 .debug_abbrev  0x000026b8      0x1ca dlms\src\objectarray.o
 .debug_abbrev  0x00002882      0x117 dlms\src\parameters.o
 .debug_abbrev  0x00002999      0x142 dlms\src\replydata.o
 .debug_abbrev  0x00002adb      0x274 dlms\src\server.o
 .debug_abbrev  0x00002d4f      0x256 dlms\src\variant.o
 .debug_abbrev  0x00002fa5      0x145 energymeter\LT_energymeter.o
 .debug_abbrev  0x000030ea      0x2ea modbus\modbus.o
 .debug_abbrev  0x000033d4      0x348 src\main.o
 .debug_abbrev  0x0000371c       0x12 src\startup_LPC17xx.o
 .debug_abbrev  0x0000372e       0xe7 src\system_LPC17xx.o
 .debug_abbrev  0x00003815      0x132 systick_timer\systick_timer.o

.debug_aranges  0x00000000     0x1770
 .debug_aranges
                0x00000000       0x30 UART\SRC\uart.o
 .debug_aranges
                0x00000030       0x90 dlms\src\apdu.o
 .debug_aranges
                0x000000c0       0x80 dlms\src\bitarray.o
 .debug_aranges
                0x00000140      0x1b8 dlms\src\bytebuffer.o
 .debug_aranges
                0x000002f8       0xb0 dlms\src\ciphering.o
 .debug_aranges
                0x000003a8       0x48 dlms\src\cosem.o
 .debug_aranges
                0x000003f0       0x20 dlms\src\datainfo.o
 .debug_aranges
                0x00000410       0xc8 dlms\src\date.o
 .debug_aranges
                0x000004d8      0x268 dlms\src\dlms.o
 .debug_aranges
                0x00000740       0x98 dlms\src\dlmsSettings.o
 .debug_aranges
                0x000007d8       0xa8 dlms\src\gxaes.o
 .debug_aranges
                0x00000880       0x68 dlms\src\gxarray.o
 .debug_aranges
                0x000008e8      0x210 dlms\src\gxget.o
 .debug_aranges
                0x00000af8       0xb0 dlms\src\gxinvoke.o
 .debug_aranges
                0x00000ba8       0x28 dlms\src\gxkey.o
 .debug_aranges
                0x00000bd0       0x88 dlms\src\gxmd5.o
 .debug_aranges
                0x00000c58      0x108 dlms\src\gxobjects.o
 .debug_aranges
                0x00000d60      0x1a8 dlms\src\gxset.o
 .debug_aranges
                0x00000f08       0x38 dlms\src\gxsha1.o
 .debug_aranges
                0x00000f40       0x38 dlms\src\gxsha256.o
 .debug_aranges
                0x00000f78       0x60 dlms\src\gxvalueeventargs.o
 .debug_aranges
                0x00000fd8       0xd8 dlms\src\helpers.o
 .debug_aranges
                0x000010b0       0x98 dlms\src\objectarray.o
 .debug_aranges
                0x00001148       0x28 dlms\src\parameters.o
 .debug_aranges
                0x00001170       0x38 dlms\src\replydata.o
 .debug_aranges
                0x000011a8      0x120 dlms\src\server.o
 .debug_aranges
                0x000012c8      0x208 dlms\src\variant.o
 .debug_aranges
                0x000014d0       0x80 energymeter\LT_energymeter.o
 .debug_aranges
                0x00001550       0x68 modbus\modbus.o
 .debug_aranges
                0x000015b8      0x130 src\main.o
 .debug_aranges
                0x000016e8       0x28 src\startup_LPC17xx.o
 .debug_aranges
                0x00001710       0x28 src\system_LPC17xx.o
 .debug_aranges
                0x00001738       0x38 systick_timer\systick_timer.o

.debug_ranges   0x00000000     0x1600
 .debug_ranges  0x00000000       0x20 UART\SRC\uart.o
 .debug_ranges  0x00000020       0x80 dlms\src\apdu.o
 .debug_ranges  0x000000a0       0x70 dlms\src\bitarray.o
 .debug_ranges  0x00000110      0x1a8 dlms\src\bytebuffer.o
 .debug_ranges  0x000002b8       0xa0 dlms\src\ciphering.o
 .debug_ranges  0x00000358       0x38 dlms\src\cosem.o
 .debug_ranges  0x00000390       0x10 dlms\src\datainfo.o
 .debug_ranges  0x000003a0       0xb8 dlms\src\date.o
 .debug_ranges  0x00000458      0x258 dlms\src\dlms.o
 .debug_ranges  0x000006b0       0x88 dlms\src\dlmsSettings.o
 .debug_ranges  0x00000738       0x98 dlms\src\gxaes.o
 .debug_ranges  0x000007d0       0x58 dlms\src\gxarray.o
 .debug_ranges  0x00000828      0x218 dlms\src\gxget.o
 .debug_ranges  0x00000a40       0xa0 dlms\src\gxinvoke.o
 .debug_ranges  0x00000ae0       0x18 dlms\src\gxkey.o
 .debug_ranges  0x00000af8       0x78 dlms\src\gxmd5.o
 .debug_ranges  0x00000b70       0xf8 dlms\src\gxobjects.o
 .debug_ranges  0x00000c68      0x218 dlms\src\gxset.o
 .debug_ranges  0x00000e80       0x28 dlms\src\gxsha1.o
 .debug_ranges  0x00000ea8       0x28 dlms\src\gxsha256.o
 .debug_ranges  0x00000ed0       0x50 dlms\src\gxvalueeventargs.o
 .debug_ranges  0x00000f20       0xc8 dlms\src\helpers.o
 .debug_ranges  0x00000fe8       0x88 dlms\src\objectarray.o
 .debug_ranges  0x00001070       0x18 dlms\src\parameters.o
 .debug_ranges  0x00001088       0x28 dlms\src\replydata.o
 .debug_ranges  0x000010b0      0x110 dlms\src\server.o
 .debug_ranges  0x000011c0      0x1f8 dlms\src\variant.o
 .debug_ranges  0x000013b8       0x70 energymeter\LT_energymeter.o
 .debug_ranges  0x00001428       0x58 modbus\modbus.o
 .debug_ranges  0x00001480      0x120 src\main.o
 .debug_ranges  0x000015a0       0x20 src\startup_LPC17xx.o
 .debug_ranges  0x000015c0       0x18 src\system_LPC17xx.o
 .debug_ranges  0x000015d8       0x28 systick_timer\systick_timer.o

.debug_line     0x00000000     0xaf87
 .debug_line    0x00000000      0x227 UART\SRC\uart.o
 .debug_line    0x00000227      0x4f4 dlms\src\apdu.o
 .debug_line    0x0000071b      0x21f dlms\src\bitarray.o
 .debug_line    0x0000093a      0x5cb dlms\src\bytebuffer.o
 .debug_line    0x00000f05      0x60a dlms\src\ciphering.o
 .debug_line    0x0000150f      0x1c5 dlms\src\cosem.o
 .debug_line    0x000016d4       0x7b dlms\src\datainfo.o
 .debug_line    0x0000174f      0x468 dlms\src\date.o
 .debug_line    0x00001bb7     0x12a0 dlms\src\dlms.o
 .debug_line    0x00002e57      0x307 dlms\src\dlmsSettings.o
 .debug_line    0x0000315e      0x475 dlms\src\gxaes.o
 .debug_line    0x000035d3      0x1d2 dlms\src\gxarray.o
 .debug_line    0x000037a5     0x18e3 dlms\src\gxget.o
 .debug_line    0x00005088      0x5f9 dlms\src\gxinvoke.o
 .debug_line    0x00005681       0x7e dlms\src\gxkey.o
 .debug_line    0x000056ff      0x250 dlms\src\gxmd5.o
 .debug_line    0x0000594f      0x7de dlms\src\gxobjects.o
 .debug_line    0x0000612d     0x169a dlms\src\gxset.o
 .debug_line    0x000077c7      0x1e9 dlms\src\gxsha1.o
 .debug_line    0x000079b0      0x1b2 dlms\src\gxsha256.o
 .debug_line    0x00007b62      0x21f dlms\src\gxvalueeventargs.o
 .debug_line    0x00007d81      0x4ad dlms\src\helpers.o
 .debug_line    0x0000822e      0x2f6 dlms\src\objectarray.o
 .debug_line    0x00008524      0x147 dlms\src\parameters.o
 .debug_line    0x0000866b      0x166 dlms\src\replydata.o
 .debug_line    0x000087d1      0xbc7 dlms\src\server.o
 .debug_line    0x00009398      0xa7d dlms\src\variant.o
 .debug_line    0x00009e15      0x2ca energymeter\LT_energymeter.o
 .debug_line    0x0000a0df      0x2df modbus\modbus.o
 .debug_line    0x0000a3be      0x779 src\main.o
 .debug_line    0x0000ab37       0x79 src\startup_LPC17xx.o
 .debug_line    0x0000abb0      0x211 src\system_LPC17xx.o
 .debug_line    0x0000adc1      0x1c6 systick_timer\systick_timer.o

.debug_str      0x00000000     0xaa67
 .debug_str     0x00000000      0x6c8 UART\SRC\uart.o
                                0x749 (size before relaxing)
 .debug_str     0x000006c8     0x2195 dlms\src\apdu.o
                               0x233e (size before relaxing)
 .debug_str     0x0000285d       0xee dlms\src\bitarray.o
                                0x973 (size before relaxing)
 .debug_str     0x0000294b      0x2e2 dlms\src\bytebuffer.o
                                0xb78 (size before relaxing)
 .debug_str     0x00002c2d      0x229 dlms\src\ciphering.o
                               0x12e4 (size before relaxing)
 .debug_str     0x00002e56      0xd82 dlms\src\cosem.o
                               0x1af2 (size before relaxing)
 .debug_str     0x00003bd8      0x270 dlms\src\datainfo.o
                                0x38d (size before relaxing)
 .debug_str     0x00003e48      0x4c8 dlms\src\date.o
                                0x6a2 (size before relaxing)
 .debug_str     0x00004310      0xdb3 dlms\src\dlms.o
                               0x351a (size before relaxing)
 .debug_str     0x000050c3      0x1c8 dlms\src\dlmsSettings.o
                               0x21de (size before relaxing)
 .debug_str     0x0000528b       0xfd dlms\src\gxaes.o
                                0x2d5 (size before relaxing)
 .debug_str     0x00005388       0x9f dlms\src\gxarray.o
                                0x910 (size before relaxing)
 .debug_str     0x00005427     0x2d81 dlms\src\gxget.o
                               0x5154 (size before relaxing)
 .debug_str     0x000081a8      0x1d9 dlms\src\gxinvoke.o
                               0x3793 (size before relaxing)
 .debug_str     0x00008381       0x27 dlms\src\gxkey.o
                                0x1b1 (size before relaxing)
 .debug_str     0x000083a8       0xcf dlms\src\gxmd5.o
                                0x2a0 (size before relaxing)
 .debug_str     0x00008477      0x657 dlms\src\gxobjects.o
                               0x47b3 (size before relaxing)
 .debug_str     0x00008ace      0x4d5 dlms\src\gxset.o
                               0x509f (size before relaxing)
 .debug_str     0x00008fa3       0x70 dlms\src\gxsha1.o
                                0x22a (size before relaxing)
 .debug_str     0x00009013       0xb4 dlms\src\gxsha256.o
                                0x269 (size before relaxing)
 .debug_str     0x000090c7       0x7a dlms\src\gxvalueeventargs.o
                                0xd9d (size before relaxing)
 .debug_str     0x00009141      0x20d dlms\src\helpers.o
                                0xe23 (size before relaxing)
 .debug_str     0x0000934e       0xde dlms\src\objectarray.o
                               0x1108 (size before relaxing)
 .debug_str     0x0000942c       0x35 dlms\src\parameters.o
                               0x12be (size before relaxing)
 .debug_str     0x00009461       0x57 dlms\src\replydata.o
                                0xd93 (size before relaxing)
 .debug_str     0x000094b8      0x7fe dlms\src\server.o
                               0x3bbf (size before relaxing)
 .debug_str     0x00009cb6      0x396 dlms\src\variant.o
                               0x11b5 (size before relaxing)
 .debug_str     0x0000a04c      0x2ac energymeter\LT_energymeter.o
                                0x4b5 (size before relaxing)
 .debug_str     0x0000a2f8      0x30a modbus\modbus.o
                                0x69c (size before relaxing)
 .debug_str     0x0000a602      0x34a src\main.o
                               0x32f0 (size before relaxing)
 .debug_str     0x0000a94c       0x87 src\system_LPC17xx.o
                                0x38c (size before relaxing)
 .debug_str     0x0000a9d3       0x94 systick_timer\systick_timer.o
                                0x24c (size before relaxing)

.comment        0x00000000       0x7e
 .comment       0x00000000       0x7e UART\SRC\uart.o
                                 0x7f (size before relaxing)
 .comment       0x0000007e       0x7f dlms\src\apdu.o
 .comment       0x0000007e       0x7f dlms\src\bitarray.o
 .comment       0x0000007e       0x7f dlms\src\bytebuffer.o
 .comment       0x0000007e       0x7f dlms\src\ciphering.o
 .comment       0x0000007e       0x7f dlms\src\cosem.o
 .comment       0x0000007e       0x7f dlms\src\datainfo.o
 .comment       0x0000007e       0x7f dlms\src\date.o
 .comment       0x0000007e       0x7f dlms\src\dlms.o
 .comment       0x0000007e       0x7f dlms\src\dlmsSettings.o
 .comment       0x0000007e       0x7f dlms\src\gxaes.o
 .comment       0x0000007e       0x7f dlms\src\gxarray.o
 .comment       0x0000007e       0x7f dlms\src\gxget.o
 .comment       0x0000007e       0x7f dlms\src\gxinvoke.o
 .comment       0x0000007e       0x7f dlms\src\gxkey.o
 .comment       0x0000007e       0x7f dlms\src\gxmd5.o
 .comment       0x0000007e       0x7f dlms\src\gxobjects.o
 .comment       0x0000007e       0x7f dlms\src\gxset.o
 .comment       0x0000007e       0x7f dlms\src\gxsha1.o
 .comment       0x0000007e       0x7f dlms\src\gxsha256.o
 .comment       0x0000007e       0x7f dlms\src\gxvalueeventargs.o
 .comment       0x0000007e       0x7f dlms\src\helpers.o
 .comment       0x0000007e       0x7f dlms\src\objectarray.o
 .comment       0x0000007e       0x7f dlms\src\parameters.o
 .comment       0x0000007e       0x7f dlms\src\replydata.o
 .comment       0x0000007e       0x7f dlms\src\server.o
 .comment       0x0000007e       0x7f dlms\src\variant.o
 .comment       0x0000007e       0x7f energymeter\LT_energymeter.o
 .comment       0x0000007e       0x7f modbus\modbus.o
 .comment       0x0000007e       0x7f src\main.o
 .comment       0x0000007e       0x7f src\system_LPC17xx.o
 .comment       0x0000007e       0x7f systick_timer\systick_timer.o

.debug_frame    0x00000000     0x7218
 .debug_frame   0x00000000       0x84 UART\SRC\uart.o
 .debug_frame   0x00000084      0x254 dlms\src\apdu.o
 .debug_frame   0x000002d8      0x204 dlms\src\bitarray.o
 .debug_frame   0x000004dc      0x7cc dlms\src\bytebuffer.o
 .debug_frame   0x00000ca8      0x2ec dlms\src\ciphering.o
 .debug_frame   0x00000f94       0xf0 dlms\src\cosem.o
 .debug_frame   0x00001084       0x38 dlms\src\datainfo.o
 .debug_frame   0x000010bc      0x370 dlms\src\date.o
 .debug_frame   0x0000142c      0xafc dlms\src\dlms.o
 .debug_frame   0x00001f28      0x270 dlms\src\dlmsSettings.o
 .debug_frame   0x00002198      0x2d4 dlms\src\gxaes.o
 .debug_frame   0x0000246c      0x188 dlms\src\gxarray.o
 .debug_frame   0x000025f4      0x980 dlms\src\gxget.o
 .debug_frame   0x00002f74      0x2e0 dlms\src\gxinvoke.o
 .debug_frame   0x00003254       0x58 dlms\src\gxkey.o
 .debug_frame   0x000032ac      0x244 dlms\src\gxmd5.o
 .debug_frame   0x000034f0      0x458 dlms\src\gxobjects.o
 .debug_frame   0x00003948      0x7b8 dlms\src\gxset.o
 .debug_frame   0x00004100       0xb0 dlms\src\gxsha1.o
 .debug_frame   0x000041b0       0xac dlms\src\gxsha256.o
 .debug_frame   0x0000425c      0x160 dlms\src\gxvalueeventargs.o
 .debug_frame   0x000043bc      0x3a4 dlms\src\helpers.o
 .debug_frame   0x00004760      0x264 dlms\src\objectarray.o
 .debug_frame   0x000049c4       0x60 dlms\src\parameters.o
 .debug_frame   0x00004a24       0xa4 dlms\src\replydata.o
 .debug_frame   0x00004ac8      0x508 dlms\src\server.o
 .debug_frame   0x00004fd0      0x934 dlms\src\variant.o
 .debug_frame   0x00005904      0x1dc energymeter\LT_energymeter.o
 .debug_frame   0x00005ae0      0x174 modbus\modbus.o
 .debug_frame   0x00005c54      0x530 src\main.o
 .debug_frame   0x00006184       0x50 src\system_LPC17xx.o
 .debug_frame   0x000061d4       0x98 systick_timer\systick_timer.o
 .debug_frame   0x0000626c       0x20 c:/program files (x86)/atollic/truestudio for arm 7.1.0/armtools/bin/../lib/gcc/arm-atollic-eabi/5.3.1/../../../../arm-atollic-eabi/lib/armv7-m\libc_nano.a(lib_a-calloc.o)
 .debug_frame   0x0000628c       0x2c c:/program files (x86)/atollic/truestudio for arm 7.1.0/armtools/bin/../lib/gcc/arm-atollic-eabi/5.3.1/../../../../arm-atollic-eabi/lib/armv7-m\libc_nano.a(lib_a-init.o)
 .debug_frame   0x000062b8       0x34 c:/program files (x86)/atollic/truestudio for arm 7.1.0/armtools/bin/../lib/gcc/arm-atollic-eabi/5.3.1/../../../../arm-atollic-eabi/lib/armv7-m\libc_nano.a(lib_a-lcltime.o)
 .debug_frame   0x000062ec       0x30 c:/program files (x86)/atollic/truestudio for arm 7.1.0/armtools/bin/../lib/gcc/arm-atollic-eabi/5.3.1/../../../../arm-atollic-eabi/lib/armv7-m\libc_nano.a(lib_a-lcltime_r.o)
 .debug_frame   0x0000631c       0x30 c:/program files (x86)/atollic/truestudio for arm 7.1.0/armtools/bin/../lib/gcc/arm-atollic-eabi/5.3.1/../../../../arm-atollic-eabi/lib/armv7-m\libc_nano.a(lib_a-malloc.o)
 .debug_frame   0x0000634c       0x28 c:/program files (x86)/atollic/truestudio for arm 7.1.0/armtools/bin/../lib/gcc/arm-atollic-eabi/5.3.1/../../../../arm-atollic-eabi/lib/armv7-m\libc_nano.a(lib_a-memcmp.o)
 .debug_frame   0x00006374       0x28 c:/program files (x86)/atollic/truestudio for arm 7.1.0/armtools/bin/../lib/gcc/arm-atollic-eabi/5.3.1/../../../../arm-atollic-eabi/lib/armv7-m\libc_nano.a(lib_a-memcpy-stub.o)
 .debug_frame   0x0000639c       0x28 c:/program files (x86)/atollic/truestudio for arm 7.1.0/armtools/bin/../lib/gcc/arm-atollic-eabi/5.3.1/../../../../arm-atollic-eabi/lib/armv7-m\libc_nano.a(lib_a-memmove.o)
 .debug_frame   0x000063c4       0x20 c:/program files (x86)/atollic/truestudio for arm 7.1.0/armtools/bin/../lib/gcc/arm-atollic-eabi/5.3.1/../../../../arm-atollic-eabi/lib/armv7-m\libc_nano.a(lib_a-memset.o)
 .debug_frame   0x000063e4       0x58 c:/program files (x86)/atollic/truestudio for arm 7.1.0/armtools/bin/../lib/gcc/arm-atollic-eabi/5.3.1/../../../../arm-atollic-eabi/lib/armv7-m\libc_nano.a(lib_a-mktime.o)
 .debug_frame   0x0000643c       0x2c c:/program files (x86)/atollic/truestudio for arm 7.1.0/armtools/bin/../lib/gcc/arm-atollic-eabi/5.3.1/../../../../arm-atollic-eabi/lib/armv7-m\libc_nano.a(lib_a-nano-callocr.o)
 .debug_frame   0x00006468       0x38 c:/program files (x86)/atollic/truestudio for arm 7.1.0/armtools/bin/../lib/gcc/arm-atollic-eabi/5.3.1/../../../../arm-atollic-eabi/lib/armv7-m\libc_nano.a(lib_a-nano-freer.o)
 .debug_frame   0x000064a0       0x2c c:/program files (x86)/atollic/truestudio for arm 7.1.0/armtools/bin/../lib/gcc/arm-atollic-eabi/5.3.1/../../../../arm-atollic-eabi/lib/armv7-m\libc_nano.a(lib_a-nano-mallocr.o)
 .debug_frame   0x000064cc       0x3c c:/program files (x86)/atollic/truestudio for arm 7.1.0/armtools/bin/../lib/gcc/arm-atollic-eabi/5.3.1/../../../../arm-atollic-eabi/lib/armv7-m\libc_nano.a(lib_a-puts.o)
 .debug_frame   0x00006508       0x20 c:/program files (x86)/atollic/truestudio for arm 7.1.0/armtools/bin/../lib/gcc/arm-atollic-eabi/5.3.1/../../../../arm-atollic-eabi/lib/armv7-m\libc_nano.a(lib_a-realloc.o)
 .debug_frame   0x00006528       0x2c c:/program files (x86)/atollic/truestudio for arm 7.1.0/armtools/bin/../lib/gcc/arm-atollic-eabi/5.3.1/../../../../arm-atollic-eabi/lib/armv7-m\libc_nano.a(lib_a-sbrkr.o)
 .debug_frame   0x00006554       0x70 c:/program files (x86)/atollic/truestudio for arm 7.1.0/armtools/bin/../lib/gcc/arm-atollic-eabi/5.3.1/../../../../arm-atollic-eabi/lib/armv7-m\libc_nano.a(lib_a-sprintf.o)
 .debug_frame   0x000065c4       0x80 c:/program files (x86)/atollic/truestudio for arm 7.1.0/armtools/bin/../lib/gcc/arm-atollic-eabi/5.3.1/../../../../arm-atollic-eabi/lib/armv7-m\libc_nano.a(lib_a-sscanf.o)
 .debug_frame   0x00006644       0x88 c:/program files (x86)/atollic/truestudio for arm 7.1.0/armtools/bin/../lib/gcc/arm-atollic-eabi/5.3.1/../../../../arm-atollic-eabi/lib/armv7-m\libc_nano.a(lib_a-stdio.o)
 .debug_frame   0x000066cc       0x20 c:/program files (x86)/atollic/truestudio for arm 7.1.0/armtools/bin/../lib/gcc/arm-atollic-eabi/5.3.1/../../../../arm-atollic-eabi/lib/armv7-m\libc_nano.a(lib_a-strcmp.o)
 .debug_frame   0x000066ec       0x3c c:/program files (x86)/atollic/truestudio for arm 7.1.0/armtools/bin/../lib/gcc/arm-atollic-eabi/5.3.1/../../../../arm-atollic-eabi/lib/armv7-m\libc_nano.a(lib_a-tzcalc_limits.o)
 .debug_frame   0x00006728       0x30 c:/program files (x86)/atollic/truestudio for arm 7.1.0/armtools/bin/../lib/gcc/arm-atollic-eabi/5.3.1/../../../../arm-atollic-eabi/lib/armv7-m\libc_nano.a(lib_a-tzlock.o)
 .debug_frame   0x00006758       0x3c c:/program files (x86)/atollic/truestudio for arm 7.1.0/armtools/bin/../lib/gcc/arm-atollic-eabi/5.3.1/../../../../arm-atollic-eabi/lib/armv7-m\libc_nano.a(lib_a-tzset.o)
 .debug_frame   0x00006794       0x5c c:/program files (x86)/atollic/truestudio for arm 7.1.0/armtools/bin/../lib/gcc/arm-atollic-eabi/5.3.1/../../../../arm-atollic-eabi/lib/armv7-m\libc_nano.a(lib_a-tzset_r.o)
 .debug_frame   0x000067f0       0x40 c:/program files (x86)/atollic/truestudio for arm 7.1.0/armtools/bin/../lib/gcc/arm-atollic-eabi/5.3.1/../../../../arm-atollic-eabi/lib/armv7-m\libc_nano.a(lib_a-wbuf.o)
 .debug_frame   0x00006830       0x2c c:/program files (x86)/atollic/truestudio for arm 7.1.0/armtools/bin/../lib/gcc/arm-atollic-eabi/5.3.1/../../../../arm-atollic-eabi/lib/armv7-m\libc_nano.a(lib_a-writer.o)
 .debug_frame   0x0000685c       0x2c c:/program files (x86)/atollic/truestudio for arm 7.1.0/armtools/bin/../lib/gcc/arm-atollic-eabi/5.3.1/../../../../arm-atollic-eabi/lib/armv7-m\libc_nano.a(lib_a-wsetup.o)
 .debug_frame   0x00006888       0x2c c:/program files (x86)/atollic/truestudio for arm 7.1.0/armtools/bin/../lib/gcc/arm-atollic-eabi/5.3.1/../../../../arm-atollic-eabi/lib/armv7-m\libc_nano.a(lib_a-closer.o)
 .debug_frame   0x000068b4       0x28 c:/program files (x86)/atollic/truestudio for arm 7.1.0/armtools/bin/../lib/gcc/arm-atollic-eabi/5.3.1/../../../../arm-atollic-eabi/lib/armv7-m\libc_nano.a(lib_a-div.o)
 .debug_frame   0x000068dc       0x68 c:/program files (x86)/atollic/truestudio for arm 7.1.0/armtools/bin/../lib/gcc/arm-atollic-eabi/5.3.1/../../../../arm-atollic-eabi/lib/armv7-m\libc_nano.a(lib_a-fflush.o)
 .debug_frame   0x00006944      0x11c c:/program files (x86)/atollic/truestudio for arm 7.1.0/armtools/bin/../lib/gcc/arm-atollic-eabi/5.3.1/../../../../arm-atollic-eabi/lib/armv7-m\libc_nano.a(lib_a-findfp.o)
 .debug_frame   0x00006a60       0x54 c:/program files (x86)/atollic/truestudio for arm 7.1.0/armtools/bin/../lib/gcc/arm-atollic-eabi/5.3.1/../../../../arm-atollic-eabi/lib/armv7-m\libc_nano.a(lib_a-fwalk.o)
 .debug_frame   0x00006ab4       0x50 c:/program files (x86)/atollic/truestudio for arm 7.1.0/armtools/bin/../lib/gcc/arm-atollic-eabi/5.3.1/../../../../arm-atollic-eabi/lib/armv7-m\libc_nano.a(lib_a-getenv_r.o)
 .debug_frame   0x00006b04       0x20 c:/program files (x86)/atollic/truestudio for arm 7.1.0/armtools/bin/../lib/gcc/arm-atollic-eabi/5.3.1/../../../../arm-atollic-eabi/lib/armv7-m\libc_nano.a(lib_a-gettzinfo.o)
 .debug_frame   0x00006b24       0x30 c:/program files (x86)/atollic/truestudio for arm 7.1.0/armtools/bin/../lib/gcc/arm-atollic-eabi/5.3.1/../../../../arm-atollic-eabi/lib/armv7-m\libc_nano.a(lib_a-gmtime_r.o)
 .debug_frame   0x00006b54       0x2c c:/program files (x86)/atollic/truestudio for arm 7.1.0/armtools/bin/../lib/gcc/arm-atollic-eabi/5.3.1/../../../../arm-atollic-eabi/lib/armv7-m\libc_nano.a(lib_a-lseekr.o)
 .debug_frame   0x00006b80       0x54 c:/program files (x86)/atollic/truestudio for arm 7.1.0/armtools/bin/../lib/gcc/arm-atollic-eabi/5.3.1/../../../../arm-atollic-eabi/lib/armv7-m\libc_nano.a(lib_a-makebuf.o)
 .debug_frame   0x00006bd4       0x30 c:/program files (x86)/atollic/truestudio for arm 7.1.0/armtools/bin/../lib/gcc/arm-atollic-eabi/5.3.1/../../../../arm-atollic-eabi/lib/armv7-m\libc_nano.a(lib_a-mlock.o)
 .debug_frame   0x00006c04       0x3c c:/program files (x86)/atollic/truestudio for arm 7.1.0/armtools/bin/../lib/gcc/arm-atollic-eabi/5.3.1/../../../../arm-atollic-eabi/lib/armv7-m\libc_nano.a(lib_a-nano-reallocr.o)
 .debug_frame   0x00006c40       0x90 c:/program files (x86)/atollic/truestudio for arm 7.1.0/armtools/bin/../lib/gcc/arm-atollic-eabi/5.3.1/../../../../arm-atollic-eabi/lib/armv7-m\libc_nano.a(lib_a-nano-svfprintf.o)
 .debug_frame   0x00006cd0       0x74 c:/program files (x86)/atollic/truestudio for arm 7.1.0/armtools/bin/../lib/gcc/arm-atollic-eabi/5.3.1/../../../../arm-atollic-eabi/lib/armv7-m\libc_nano.a(lib_a-nano-svfscanf.o)
 .debug_frame   0x00006d44       0x60 c:/program files (x86)/atollic/truestudio for arm 7.1.0/armtools/bin/../lib/gcc/arm-atollic-eabi/5.3.1/../../../../arm-atollic-eabi/lib/armv7-m\libc_nano.a(lib_a-nano-vfprintf_i.o)
 .debug_frame   0x00006da4       0x60 c:/program files (x86)/atollic/truestudio for arm 7.1.0/armtools/bin/../lib/gcc/arm-atollic-eabi/5.3.1/../../../../arm-atollic-eabi/lib/armv7-m\libc_nano.a(lib_a-nano-vfscanf_i.o)
 .debug_frame   0x00006e04       0x2c c:/program files (x86)/atollic/truestudio for arm 7.1.0/armtools/bin/../lib/gcc/arm-atollic-eabi/5.3.1/../../../../arm-atollic-eabi/lib/armv7-m\libc_nano.a(lib_a-readr.o)
 .debug_frame   0x00006e30       0x5c c:/program files (x86)/atollic/truestudio for arm 7.1.0/armtools/bin/../lib/gcc/arm-atollic-eabi/5.3.1/../../../../arm-atollic-eabi/lib/armv7-m\libc_nano.a(lib_a-reent.o)
 .debug_frame   0x00006e8c       0x2c c:/program files (x86)/atollic/truestudio for arm 7.1.0/armtools/bin/../lib/gcc/arm-atollic-eabi/5.3.1/../../../../arm-atollic-eabi/lib/armv7-m\libc_nano.a(lib_a-sccl.o)
 .debug_frame   0x00006eb8       0x20 c:/program files (x86)/atollic/truestudio for arm 7.1.0/armtools/bin/../lib/gcc/arm-atollic-eabi/5.3.1/../../../../arm-atollic-eabi/lib/armv7-m\libc_nano.a(lib_a-strcpy.o)
 .debug_frame   0x00006ed8       0x2c c:/program files (x86)/atollic/truestudio for arm 7.1.0/armtools/bin/../lib/gcc/arm-atollic-eabi/5.3.1/../../../../arm-atollic-eabi/lib/armv7-m\libc_nano.a(lib_a-strncmp.o)
 .debug_frame   0x00006f04       0x44 c:/program files (x86)/atollic/truestudio for arm 7.1.0/armtools/bin/../lib/gcc/arm-atollic-eabi/5.3.1/../../../../arm-atollic-eabi/lib/armv7-m\libc_nano.a(lib_a-strtol.o)
 .debug_frame   0x00006f48       0x44 c:/program files (x86)/atollic/truestudio for arm 7.1.0/armtools/bin/../lib/gcc/arm-atollic-eabi/5.3.1/../../../../arm-atollic-eabi/lib/armv7-m\libc_nano.a(lib_a-strtoul.o)
 .debug_frame   0x00006f8c       0x60 c:/program files (x86)/atollic/truestudio for arm 7.1.0/armtools/bin/../lib/gcc/arm-atollic-eabi/5.3.1/../../../../arm-atollic-eabi/lib/armv7-m\libc_nano.a(lib_a-ungetc.o)
 .debug_frame   0x00006fec       0x30 c:/program files (x86)/atollic/truestudio for arm 7.1.0/armtools/bin/../lib/gcc/arm-atollic-eabi/5.3.1/../../../../arm-atollic-eabi/lib/armv7-m\libc_nano.a(lib_a-envlock.o)
 .debug_frame   0x0000701c       0x2c c:/program files (x86)/atollic/truestudio for arm 7.1.0/armtools/bin/../lib/gcc/arm-atollic-eabi/5.3.1/../../../../arm-atollic-eabi/lib/armv7-m\libc_nano.a(lib_a-fstatr.o)
 .debug_frame   0x00007048       0x2c c:/program files (x86)/atollic/truestudio for arm 7.1.0/armtools/bin/../lib/gcc/arm-atollic-eabi/5.3.1/../../../../arm-atollic-eabi/lib/armv7-m\libc_nano.a(lib_a-isattyr.o)
 .debug_frame   0x00007074       0x28 c:/program files (x86)/atollic/truestudio for arm 7.1.0/armtools/bin/../lib/gcc/arm-atollic-eabi/5.3.1/../../../../arm-atollic-eabi/lib/armv7-m\libc_nano.a(lib_a-memchr-stub.o)
 .debug_frame   0x0000709c       0x20 c:/program files (x86)/atollic/truestudio for arm 7.1.0/armtools/bin/../lib/gcc/arm-atollic-eabi/5.3.1/../../../../arm-atollic-eabi/lib/armv7-m\libc_nano.a(lib_a-nano-msizer.o)
 .debug_frame   0x000070bc       0x44 c:/program files (x86)/atollic/truestudio for arm 7.1.0/armtools/bin/../lib/gcc/arm-atollic-eabi/5.3.1/armv7-m\libgcc.a(_aeabi_ldivmod.o)
 .debug_frame   0x00007100       0x38 c:/program files (x86)/atollic/truestudio for arm 7.1.0/armtools/bin/../lib/gcc/arm-atollic-eabi/5.3.1/armv7-m\libgcc.a(_udivmoddi4.o)
 .debug_frame   0x00007138       0x20 c:/program files (x86)/atollic/truestudio for arm 7.1.0/armtools/bin/../lib/gcc/arm-atollic-eabi/5.3.1/../../../../arm-atollic-eabi/lib/armv7-m\libnosys.a(close.o)
 .debug_frame   0x00007158       0x20 c:/program files (x86)/atollic/truestudio for arm 7.1.0/armtools/bin/../lib/gcc/arm-atollic-eabi/5.3.1/../../../../arm-atollic-eabi/lib/armv7-m\libnosys.a(fstat.o)
 .debug_frame   0x00007178       0x20 c:/program files (x86)/atollic/truestudio for arm 7.1.0/armtools/bin/../lib/gcc/arm-atollic-eabi/5.3.1/../../../../arm-atollic-eabi/lib/armv7-m\libnosys.a(isatty.o)
 .debug_frame   0x00007198       0x20 c:/program files (x86)/atollic/truestudio for arm 7.1.0/armtools/bin/../lib/gcc/arm-atollic-eabi/5.3.1/../../../../arm-atollic-eabi/lib/armv7-m\libnosys.a(lseek.o)
 .debug_frame   0x000071b8       0x20 c:/program files (x86)/atollic/truestudio for arm 7.1.0/armtools/bin/../lib/gcc/arm-atollic-eabi/5.3.1/../../../../arm-atollic-eabi/lib/armv7-m\libnosys.a(read.o)
 .debug_frame   0x000071d8       0x20 c:/program files (x86)/atollic/truestudio for arm 7.1.0/armtools/bin/../lib/gcc/arm-atollic-eabi/5.3.1/../../../../arm-atollic-eabi/lib/armv7-m\libnosys.a(sbrk.o)
 .debug_frame   0x000071f8       0x20 c:/program files (x86)/atollic/truestudio for arm 7.1.0/armtools/bin/../lib/gcc/arm-atollic-eabi/5.3.1/../../../../arm-atollic-eabi/lib/armv7-m\libnosys.a(write.o)

.stab           0x00000000       0x9c
 .stab          0x00000000       0x24 c:/program files (x86)/atollic/truestudio for arm 7.1.0/armtools/bin/../lib/gcc/arm-atollic-eabi/5.3.1/../../../../arm-atollic-eabi/lib/armv7-m\libnosys.a(close.o)
 .stab          0x00000024       0x18 c:/program files (x86)/atollic/truestudio for arm 7.1.0/armtools/bin/../lib/gcc/arm-atollic-eabi/5.3.1/../../../../arm-atollic-eabi/lib/armv7-m\libnosys.a(fstat.o)
                                 0x24 (size before relaxing)
 .stab          0x0000003c       0x18 c:/program files (x86)/atollic/truestudio for arm 7.1.0/armtools/bin/../lib/gcc/arm-atollic-eabi/5.3.1/../../../../arm-atollic-eabi/lib/armv7-m\libnosys.a(isatty.o)
                                 0x24 (size before relaxing)
 .stab          0x00000054       0x18 c:/program files (x86)/atollic/truestudio for arm 7.1.0/armtools/bin/../lib/gcc/arm-atollic-eabi/5.3.1/../../../../arm-atollic-eabi/lib/armv7-m\libnosys.a(lseek.o)
                                 0x24 (size before relaxing)
 .stab          0x0000006c       0x18 c:/program files (x86)/atollic/truestudio for arm 7.1.0/armtools/bin/../lib/gcc/arm-atollic-eabi/5.3.1/../../../../arm-atollic-eabi/lib/armv7-m\libnosys.a(read.o)
                                 0x24 (size before relaxing)
 .stab          0x00000084       0x18 c:/program files (x86)/atollic/truestudio for arm 7.1.0/armtools/bin/../lib/gcc/arm-atollic-eabi/5.3.1/../../../../arm-atollic-eabi/lib/armv7-m\libnosys.a(write.o)
                                 0x24 (size before relaxing)

.stabstr        0x00000000      0x14d
 .stabstr       0x00000000      0x14d c:/program files (x86)/atollic/truestudio for arm 7.1.0/armtools/bin/../lib/gcc/arm-atollic-eabi/5.3.1/../../../../arm-atollic-eabi/lib/armv7-m\libnosys.a(close.o)

Cross Reference Table

Symbol                                            File
ADC_IRQHandler                                    src\startup_LPC17xx.o
ALL_OBJECTS                                       src\main.o
BOD_IRQHandler                                    src\startup_LPC17xx.o
BusFault_Handler                                  src\startup_LPC17xx.o
CANActivity_IRQHandler                            src\startup_LPC17xx.o
CAN_IRQHandler                                    src\startup_LPC17xx.o
DMA_IRQHandler                                    src\startup_LPC17xx.o
DebugMon_Handler                                  src\startup_LPC17xx.o
Default_Handler                                   src\startup_LPC17xx.o
EINT0_IRQHandler                                  src\startup_LPC17xx.o
EINT1_IRQHandler                                  src\startup_LPC17xx.o
EINT2_IRQHandler                                  src\startup_LPC17xx.o
EINT3_IRQHandler                                  src\startup_LPC17xx.o
ENET_IRQHandler                                   src\startup_LPC17xx.o
FCS16Table                                        dlms\src\dlms.o
HardFault_Handler                                 src\startup_LPC17xx.o
I2C0_IRQHandler                                   src\startup_LPC17xx.o
I2C1_IRQHandler                                   src\startup_LPC17xx.o
I2C2_IRQHandler                                   src\startup_LPC17xx.o
I2S_IRQHandler                                    src\startup_LPC17xx.o
MCPWM_IRQHandler                                  src\startup_LPC17xx.o
MemManage_Handler                                 src\startup_LPC17xx.o
NMI_Handler                                       src\startup_LPC17xx.o
PLL0_IRQHandler                                   src\startup_LPC17xx.o
PLL1_IRQHandler                                   src\startup_LPC17xx.o
PWM1_IRQHandler                                   src\startup_LPC17xx.o
PendSV_Handler                                    src\startup_LPC17xx.o
QEI_IRQHandler                                    src\startup_LPC17xx.o
RIT_IRQHandler                                    src\startup_LPC17xx.o
RTC_IRQHandler                                    src\startup_LPC17xx.o
Reset_Handler                                     src\startup_LPC17xx.o
SERIAL_NUMBER                                     src\main.o
SPI_IRQHandler                                    src\startup_LPC17xx.o
SSP0_IRQHandler                                   src\startup_LPC17xx.o
SSP1_IRQHandler                                   src\startup_LPC17xx.o
SVC_Handler                                       src\startup_LPC17xx.o
SysTick_Handler                                   systick_timer\systick_timer.o
                                                  src\startup_LPC17xx.o
SystemCoreClock                                   src\system_LPC17xx.o
                                                  UART\SRC\uart.o
SystemCoreClockUpdate                             src\system_LPC17xx.o
SystemInit                                        src\system_LPC17xx.o
                                                  src\startup_LPC17xx.o
TIMER0_IRQHandler                                 src\startup_LPC17xx.o
TIMER1_IRQHandler                                 src\startup_LPC17xx.o
TIMER2_IRQHandler                                 src\startup_LPC17xx.o
TIMER3_IRQHandler                                 src\startup_LPC17xx.o
Te0                                               dlms\src\ciphering.o
UART0_IRQHandler                                  src\startup_LPC17xx.o
UART1_IRQHandler                                  modbus\modbus.o
UART2_IRQHandler                                  src\startup_LPC17xx.o
UART3Buffer                                       UART\SRC\uart.o
                                                  src\main.o
UART3Count                                        UART\SRC\uart.o
                                                  src\main.o
UART3Status                                       UART\SRC\uart.o
                                                  src\main.o
UART3TxEmpty                                      UART\SRC\uart.o
                                                  src\main.o
UART3_IRQHandler                                  src\main.o
UARTInit                                          UART\SRC\uart.o
                                                  src\main.o
                                                  modbus\modbus.o
UARTSend                                          UART\SRC\uart.o
                                                  src\main.o
                                                  modbus\modbus.o
USBActivity_IRQHandler                            src\startup_LPC17xx.o
USB_IRQHandler                                    src\startup_LPC17xx.o
UsageFault_Handler                                src\startup_LPC17xx.o
WDT_IRQHandler                                    src\startup_LPC17xx.o
__adddf3                                          c:/program files (x86)/atollic/truestudio for arm 7.1.0/armtools/bin/../lib/gcc/arm-atollic-eabi/5.3.1/armv7-m\libgcc.a(_arm_addsubdf3.o)
__aeabi_cdcmpeq                                   c:/program files (x86)/atollic/truestudio for arm 7.1.0/armtools/bin/../lib/gcc/arm-atollic-eabi/5.3.1/armv7-m\libgcc.a(_arm_cmpdf2.o)
__aeabi_cdcmple                                   c:/program files (x86)/atollic/truestudio for arm 7.1.0/armtools/bin/../lib/gcc/arm-atollic-eabi/5.3.1/armv7-m\libgcc.a(_arm_cmpdf2.o)
__aeabi_cdrcmple                                  c:/program files (x86)/atollic/truestudio for arm 7.1.0/armtools/bin/../lib/gcc/arm-atollic-eabi/5.3.1/armv7-m\libgcc.a(_arm_cmpdf2.o)
__aeabi_d2iz                                      c:/program files (x86)/atollic/truestudio for arm 7.1.0/armtools/bin/../lib/gcc/arm-atollic-eabi/5.3.1/armv7-m\libgcc.a(_arm_fixdfsi.o)
                                                  dlms\src\variant.o
                                                  dlms\src\gxget.o
                                                  dlms\src\bytebuffer.o
                                                  dlms\src\bitarray.o
__aeabi_d2uiz                                     c:/program files (x86)/atollic/truestudio for arm 7.1.0/armtools/bin/../lib/gcc/arm-atollic-eabi/5.3.1/armv7-m\libgcc.a(_arm_fixunsdfsi.o)
                                                  dlms\src\dlms.o
                                                  dlms\src\bitarray.o
__aeabi_dadd                                      c:/program files (x86)/atollic/truestudio for arm 7.1.0/armtools/bin/../lib/gcc/arm-atollic-eabi/5.3.1/armv7-m\libgcc.a(_arm_addsubdf3.o)
                                                  dlms\src\dlms.o
                                                  dlms\src\bitarray.o
__aeabi_dcmpeq                                    c:/program files (x86)/atollic/truestudio for arm 7.1.0/armtools/bin/../lib/gcc/arm-atollic-eabi/5.3.1/armv7-m\libgcc.a(_arm_cmpdf2.o)
                                                  dlms\src\bytebuffer.o
__aeabi_dcmpge                                    c:/program files (x86)/atollic/truestudio for arm 7.1.0/armtools/bin/../lib/gcc/arm-atollic-eabi/5.3.1/armv7-m\libgcc.a(_arm_cmpdf2.o)
__aeabi_dcmpgt                                    c:/program files (x86)/atollic/truestudio for arm 7.1.0/armtools/bin/../lib/gcc/arm-atollic-eabi/5.3.1/armv7-m\libgcc.a(_arm_cmpdf2.o)
__aeabi_dcmple                                    c:/program files (x86)/atollic/truestudio for arm 7.1.0/armtools/bin/../lib/gcc/arm-atollic-eabi/5.3.1/armv7-m\libgcc.a(_arm_cmpdf2.o)
__aeabi_dcmplt                                    c:/program files (x86)/atollic/truestudio for arm 7.1.0/armtools/bin/../lib/gcc/arm-atollic-eabi/5.3.1/armv7-m\libgcc.a(_arm_cmpdf2.o)
__aeabi_ddiv                                      c:/program files (x86)/atollic/truestudio for arm 7.1.0/armtools/bin/../lib/gcc/arm-atollic-eabi/5.3.1/armv7-m\libgcc.a(_arm_muldivdf3.o)
                                                  dlms\src\gxget.o
                                                  dlms\src\dlms.o
                                                  dlms\src\bitarray.o
__aeabi_dmul                                      c:/program files (x86)/atollic/truestudio for arm 7.1.0/armtools/bin/../lib/gcc/arm-atollic-eabi/5.3.1/armv7-m\libgcc.a(_arm_muldivdf3.o)
                                                  dlms\src\gxset.o
__aeabi_drsub                                     c:/program files (x86)/atollic/truestudio for arm 7.1.0/armtools/bin/../lib/gcc/arm-atollic-eabi/5.3.1/armv7-m\libgcc.a(_arm_addsubdf3.o)
__aeabi_dsub                                      c:/program files (x86)/atollic/truestudio for arm 7.1.0/armtools/bin/../lib/gcc/arm-atollic-eabi/5.3.1/armv7-m\libgcc.a(_arm_addsubdf3.o)
                                                  dlms\src\bytebuffer.o
__aeabi_f2d                                       c:/program files (x86)/atollic/truestudio for arm 7.1.0/armtools/bin/../lib/gcc/arm-atollic-eabi/5.3.1/armv7-m\libgcc.a(_arm_addsubdf3.o)
                                                  dlms\src\variant.o
__aeabi_f2iz                                      c:/program files (x86)/atollic/truestudio for arm 7.1.0/armtools/bin/../lib/gcc/arm-atollic-eabi/5.3.1/armv7-m\libgcc.a(_arm_fixsfsi.o)
                                                  dlms\src\variant.o
__aeabi_i2d                                       c:/program files (x86)/atollic/truestudio for arm 7.1.0/armtools/bin/../lib/gcc/arm-atollic-eabi/5.3.1/armv7-m\libgcc.a(_arm_addsubdf3.o)
                                                  dlms\src\variant.o
                                                  dlms\src\bytebuffer.o
                                                  dlms\src\bitarray.o
__aeabi_idiv0                                     c:/program files (x86)/atollic/truestudio for arm 7.1.0/armtools/bin/../lib/gcc/arm-atollic-eabi/5.3.1/armv7-m\libgcc.a(_dvmd_tls.o)
__aeabi_l2d                                       c:/program files (x86)/atollic/truestudio for arm 7.1.0/armtools/bin/../lib/gcc/arm-atollic-eabi/5.3.1/armv7-m\libgcc.a(_arm_addsubdf3.o)
                                                  dlms\src\variant.o
__aeabi_ldiv0                                     c:/program files (x86)/atollic/truestudio for arm 7.1.0/armtools/bin/../lib/gcc/arm-atollic-eabi/5.3.1/armv7-m\libgcc.a(_dvmd_tls.o)
                                                  c:/program files (x86)/atollic/truestudio for arm 7.1.0/armtools/bin/../lib/gcc/arm-atollic-eabi/5.3.1/armv7-m\libgcc.a(_aeabi_ldivmod.o)
__aeabi_ldivmod                                   c:/program files (x86)/atollic/truestudio for arm 7.1.0/armtools/bin/../lib/gcc/arm-atollic-eabi/5.3.1/armv7-m\libgcc.a(_aeabi_ldivmod.o)
                                                  dlms\src\helpers.o
__aeabi_ui2d                                      c:/program files (x86)/atollic/truestudio for arm 7.1.0/armtools/bin/../lib/gcc/arm-atollic-eabi/5.3.1/armv7-m\libgcc.a(_arm_addsubdf3.o)
                                                  dlms\src\variant.o
                                                  dlms\src\dlms.o
                                                  dlms\src\bitarray.o
__aeabi_ul2d                                      c:/program files (x86)/atollic/truestudio for arm 7.1.0/armtools/bin/../lib/gcc/arm-atollic-eabi/5.3.1/armv7-m\libgcc.a(_arm_addsubdf3.o)
                                                  dlms\src\variant.o
__cmpdf2                                          c:/program files (x86)/atollic/truestudio for arm 7.1.0/armtools/bin/../lib/gcc/arm-atollic-eabi/5.3.1/armv7-m\libgcc.a(_arm_cmpdf2.o)
__ctype_ptr__                                     c:/program files (x86)/atollic/truestudio for arm 7.1.0/armtools/bin/../lib/gcc/arm-atollic-eabi/5.3.1/../../../../arm-atollic-eabi/lib/armv7-m\libc_nano.a(lib_a-ctype_.o)
                                                  c:/program files (x86)/atollic/truestudio for arm 7.1.0/armtools/bin/../lib/gcc/arm-atollic-eabi/5.3.1/../../../../arm-atollic-eabi/lib/armv7-m\libc_nano.a(lib_a-strtoul.o)
                                                  c:/program files (x86)/atollic/truestudio for arm 7.1.0/armtools/bin/../lib/gcc/arm-atollic-eabi/5.3.1/../../../../arm-atollic-eabi/lib/armv7-m\libc_nano.a(lib_a-strtol.o)
                                                  c:/program files (x86)/atollic/truestudio for arm 7.1.0/armtools/bin/../lib/gcc/arm-atollic-eabi/5.3.1/../../../../arm-atollic-eabi/lib/armv7-m\libc_nano.a(lib_a-nano-vfscanf_i.o)
                                                  c:/program files (x86)/atollic/truestudio for arm 7.1.0/armtools/bin/../lib/gcc/arm-atollic-eabi/5.3.1/../../../../arm-atollic-eabi/lib/armv7-m\libc_nano.a(lib_a-nano-svfscanf.o)
__deregister_frame_info                           c:/program files (x86)/atollic/truestudio for arm 7.1.0/armtools/bin/../lib/gcc/arm-atollic-eabi/5.3.1/armv7-m/crtbegin.o
__divdf3                                          c:/program files (x86)/atollic/truestudio for arm 7.1.0/armtools/bin/../lib/gcc/arm-atollic-eabi/5.3.1/armv7-m\libgcc.a(_arm_muldivdf3.o)
__dso_handle                                      c:/program files (x86)/atollic/truestudio for arm 7.1.0/armtools/bin/../lib/gcc/arm-atollic-eabi/5.3.1/armv7-m/crtbegin.o
__env_lock                                        c:/program files (x86)/atollic/truestudio for arm 7.1.0/armtools/bin/../lib/gcc/arm-atollic-eabi/5.3.1/../../../../arm-atollic-eabi/lib/armv7-m\libc_nano.a(lib_a-envlock.o)
                                                  c:/program files (x86)/atollic/truestudio for arm 7.1.0/armtools/bin/../lib/gcc/arm-atollic-eabi/5.3.1/../../../../arm-atollic-eabi/lib/armv7-m\libc_nano.a(lib_a-getenv_r.o)
__env_unlock                                      c:/program files (x86)/atollic/truestudio for arm 7.1.0/armtools/bin/../lib/gcc/arm-atollic-eabi/5.3.1/../../../../arm-atollic-eabi/lib/armv7-m\libc_nano.a(lib_a-envlock.o)
                                                  c:/program files (x86)/atollic/truestudio for arm 7.1.0/armtools/bin/../lib/gcc/arm-atollic-eabi/5.3.1/../../../../arm-atollic-eabi/lib/armv7-m\libc_nano.a(lib_a-getenv_r.o)
__eqdf2                                           c:/program files (x86)/atollic/truestudio for arm 7.1.0/armtools/bin/../lib/gcc/arm-atollic-eabi/5.3.1/armv7-m\libgcc.a(_arm_cmpdf2.o)
__extendsfdf2                                     c:/program files (x86)/atollic/truestudio for arm 7.1.0/armtools/bin/../lib/gcc/arm-atollic-eabi/5.3.1/armv7-m\libgcc.a(_arm_addsubdf3.o)
__fixdfsi                                         c:/program files (x86)/atollic/truestudio for arm 7.1.0/armtools/bin/../lib/gcc/arm-atollic-eabi/5.3.1/armv7-m\libgcc.a(_arm_fixdfsi.o)
__fixsfsi                                         c:/program files (x86)/atollic/truestudio for arm 7.1.0/armtools/bin/../lib/gcc/arm-atollic-eabi/5.3.1/armv7-m\libgcc.a(_arm_fixsfsi.o)
__fixunsdfsi                                      c:/program files (x86)/atollic/truestudio for arm 7.1.0/armtools/bin/../lib/gcc/arm-atollic-eabi/5.3.1/armv7-m\libgcc.a(_arm_fixunsdfsi.o)
__floatdidf                                       c:/program files (x86)/atollic/truestudio for arm 7.1.0/armtools/bin/../lib/gcc/arm-atollic-eabi/5.3.1/armv7-m\libgcc.a(_arm_addsubdf3.o)
__floatsidf                                       c:/program files (x86)/atollic/truestudio for arm 7.1.0/armtools/bin/../lib/gcc/arm-atollic-eabi/5.3.1/armv7-m\libgcc.a(_arm_addsubdf3.o)
__floatundidf                                     c:/program files (x86)/atollic/truestudio for arm 7.1.0/armtools/bin/../lib/gcc/arm-atollic-eabi/5.3.1/armv7-m\libgcc.a(_arm_addsubdf3.o)
__floatunsidf                                     c:/program files (x86)/atollic/truestudio for arm 7.1.0/armtools/bin/../lib/gcc/arm-atollic-eabi/5.3.1/armv7-m\libgcc.a(_arm_addsubdf3.o)
__fp_lock_all                                     c:/program files (x86)/atollic/truestudio for arm 7.1.0/armtools/bin/../lib/gcc/arm-atollic-eabi/5.3.1/../../../../arm-atollic-eabi/lib/armv7-m\libc_nano.a(lib_a-findfp.o)
__fp_unlock_all                                   c:/program files (x86)/atollic/truestudio for arm 7.1.0/armtools/bin/../lib/gcc/arm-atollic-eabi/5.3.1/../../../../arm-atollic-eabi/lib/armv7-m\libc_nano.a(lib_a-findfp.o)
__gedf2                                           c:/program files (x86)/atollic/truestudio for arm 7.1.0/armtools/bin/../lib/gcc/arm-atollic-eabi/5.3.1/armv7-m\libgcc.a(_arm_cmpdf2.o)
__gettzinfo                                       c:/program files (x86)/atollic/truestudio for arm 7.1.0/armtools/bin/../lib/gcc/arm-atollic-eabi/5.3.1/../../../../arm-atollic-eabi/lib/armv7-m\libc_nano.a(lib_a-gettzinfo.o)
                                                  c:/program files (x86)/atollic/truestudio for arm 7.1.0/armtools/bin/../lib/gcc/arm-atollic-eabi/5.3.1/../../../../arm-atollic-eabi/lib/armv7-m\libc_nano.a(lib_a-tzset_r.o)
                                                  c:/program files (x86)/atollic/truestudio for arm 7.1.0/armtools/bin/../lib/gcc/arm-atollic-eabi/5.3.1/../../../../arm-atollic-eabi/lib/armv7-m\libc_nano.a(lib_a-tzcalc_limits.o)
                                                  c:/program files (x86)/atollic/truestudio for arm 7.1.0/armtools/bin/../lib/gcc/arm-atollic-eabi/5.3.1/../../../../arm-atollic-eabi/lib/armv7-m\libc_nano.a(lib_a-mktime.o)
                                                  c:/program files (x86)/atollic/truestudio for arm 7.1.0/armtools/bin/../lib/gcc/arm-atollic-eabi/5.3.1/../../../../arm-atollic-eabi/lib/armv7-m\libc_nano.a(lib_a-lcltime_r.o)
__gtdf2                                           c:/program files (x86)/atollic/truestudio for arm 7.1.0/armtools/bin/../lib/gcc/arm-atollic-eabi/5.3.1/armv7-m\libgcc.a(_arm_cmpdf2.o)
__init_array_end                                  c:/program files (x86)/atollic/truestudio for arm 7.1.0/armtools/bin/../lib/gcc/arm-atollic-eabi/5.3.1/../../../../arm-atollic-eabi/lib/armv7-m\libc_nano.a(lib_a-init.o)
__init_array_start                                c:/program files (x86)/atollic/truestudio for arm 7.1.0/armtools/bin/../lib/gcc/arm-atollic-eabi/5.3.1/../../../../arm-atollic-eabi/lib/armv7-m\libc_nano.a(lib_a-init.o)
__ledf2                                           c:/program files (x86)/atollic/truestudio for arm 7.1.0/armtools/bin/../lib/gcc/arm-atollic-eabi/5.3.1/armv7-m\libgcc.a(_arm_cmpdf2.o)
__libc_init_array                                 c:/program files (x86)/atollic/truestudio for arm 7.1.0/armtools/bin/../lib/gcc/arm-atollic-eabi/5.3.1/../../../../arm-atollic-eabi/lib/armv7-m\libc_nano.a(lib_a-init.o)
                                                  src\startup_LPC17xx.o
__ltdf2                                           c:/program files (x86)/atollic/truestudio for arm 7.1.0/armtools/bin/../lib/gcc/arm-atollic-eabi/5.3.1/armv7-m\libgcc.a(_arm_cmpdf2.o)
__malloc_free_list                                c:/program files (x86)/atollic/truestudio for arm 7.1.0/armtools/bin/../lib/gcc/arm-atollic-eabi/5.3.1/../../../../arm-atollic-eabi/lib/armv7-m\libc_nano.a(lib_a-nano-mallocr.o)
                                                  c:/program files (x86)/atollic/truestudio for arm 7.1.0/armtools/bin/../lib/gcc/arm-atollic-eabi/5.3.1/../../../../arm-atollic-eabi/lib/armv7-m\libc_nano.a(lib_a-nano-freer.o)
__malloc_lock                                     c:/program files (x86)/atollic/truestudio for arm 7.1.0/armtools/bin/../lib/gcc/arm-atollic-eabi/5.3.1/../../../../arm-atollic-eabi/lib/armv7-m\libc_nano.a(lib_a-mlock.o)
                                                  c:/program files (x86)/atollic/truestudio for arm 7.1.0/armtools/bin/../lib/gcc/arm-atollic-eabi/5.3.1/../../../../arm-atollic-eabi/lib/armv7-m\libc_nano.a(lib_a-nano-mallocr.o)
                                                  c:/program files (x86)/atollic/truestudio for arm 7.1.0/armtools/bin/../lib/gcc/arm-atollic-eabi/5.3.1/../../../../arm-atollic-eabi/lib/armv7-m\libc_nano.a(lib_a-nano-freer.o)
__malloc_sbrk_start                               c:/program files (x86)/atollic/truestudio for arm 7.1.0/armtools/bin/../lib/gcc/arm-atollic-eabi/5.3.1/../../../../arm-atollic-eabi/lib/armv7-m\libc_nano.a(lib_a-nano-mallocr.o)
__malloc_unlock                                   c:/program files (x86)/atollic/truestudio for arm 7.1.0/armtools/bin/../lib/gcc/arm-atollic-eabi/5.3.1/../../../../arm-atollic-eabi/lib/armv7-m\libc_nano.a(lib_a-mlock.o)
                                                  c:/program files (x86)/atollic/truestudio for arm 7.1.0/armtools/bin/../lib/gcc/arm-atollic-eabi/5.3.1/../../../../arm-atollic-eabi/lib/armv7-m\libc_nano.a(lib_a-nano-mallocr.o)
                                                  c:/program files (x86)/atollic/truestudio for arm 7.1.0/armtools/bin/../lib/gcc/arm-atollic-eabi/5.3.1/../../../../arm-atollic-eabi/lib/armv7-m\libc_nano.a(lib_a-nano-freer.o)
__month_lengths                                   c:/program files (x86)/atollic/truestudio for arm 7.1.0/armtools/bin/../lib/gcc/arm-atollic-eabi/5.3.1/../../../../arm-atollic-eabi/lib/armv7-m\libc_nano.a(lib_a-month_lengths.o)
                                                  c:/program files (x86)/atollic/truestudio for arm 7.1.0/armtools/bin/../lib/gcc/arm-atollic-eabi/5.3.1/../../../../arm-atollic-eabi/lib/armv7-m\libc_nano.a(lib_a-tzcalc_limits.o)
                                                  c:/program files (x86)/atollic/truestudio for arm 7.1.0/armtools/bin/../lib/gcc/arm-atollic-eabi/5.3.1/../../../../arm-atollic-eabi/lib/armv7-m\libc_nano.a(lib_a-lcltime_r.o)
__muldf3                                          c:/program files (x86)/atollic/truestudio for arm 7.1.0/armtools/bin/../lib/gcc/arm-atollic-eabi/5.3.1/armv7-m\libgcc.a(_arm_muldivdf3.o)
__nedf2                                           c:/program files (x86)/atollic/truestudio for arm 7.1.0/armtools/bin/../lib/gcc/arm-atollic-eabi/5.3.1/armv7-m\libgcc.a(_arm_cmpdf2.o)
__preinit_array_end                               c:/program files (x86)/atollic/truestudio for arm 7.1.0/armtools/bin/../lib/gcc/arm-atollic-eabi/5.3.1/../../../../arm-atollic-eabi/lib/armv7-m\libc_nano.a(lib_a-init.o)
__preinit_array_start                             c:/program files (x86)/atollic/truestudio for arm 7.1.0/armtools/bin/../lib/gcc/arm-atollic-eabi/5.3.1/../../../../arm-atollic-eabi/lib/armv7-m\libc_nano.a(lib_a-init.o)
__register_frame_info                             c:/program files (x86)/atollic/truestudio for arm 7.1.0/armtools/bin/../lib/gcc/arm-atollic-eabi/5.3.1/armv7-m/crtbegin.o
__sccl                                            c:/program files (x86)/atollic/truestudio for arm 7.1.0/armtools/bin/../lib/gcc/arm-atollic-eabi/5.3.1/../../../../arm-atollic-eabi/lib/armv7-m\libc_nano.a(lib_a-sccl.o)
                                                  c:/program files (x86)/atollic/truestudio for arm 7.1.0/armtools/bin/../lib/gcc/arm-atollic-eabi/5.3.1/../../../../arm-atollic-eabi/lib/armv7-m\libc_nano.a(lib_a-nano-vfscanf_i.o)
                                                  c:/program files (x86)/atollic/truestudio for arm 7.1.0/armtools/bin/../lib/gcc/arm-atollic-eabi/5.3.1/../../../../arm-atollic-eabi/lib/armv7-m\libc_nano.a(lib_a-nano-svfscanf.o)
__sclose                                          c:/program files (x86)/atollic/truestudio for arm 7.1.0/armtools/bin/../lib/gcc/arm-atollic-eabi/5.3.1/../../../../arm-atollic-eabi/lib/armv7-m\libc_nano.a(lib_a-stdio.o)
                                                  c:/program files (x86)/atollic/truestudio for arm 7.1.0/armtools/bin/../lib/gcc/arm-atollic-eabi/5.3.1/../../../../arm-atollic-eabi/lib/armv7-m\libc_nano.a(lib_a-findfp.o)
__seofread                                        c:/program files (x86)/atollic/truestudio for arm 7.1.0/armtools/bin/../lib/gcc/arm-atollic-eabi/5.3.1/../../../../arm-atollic-eabi/lib/armv7-m\libc_nano.a(lib_a-stdio.o)
                                                  c:/program files (x86)/atollic/truestudio for arm 7.1.0/armtools/bin/../lib/gcc/arm-atollic-eabi/5.3.1/../../../../arm-atollic-eabi/lib/armv7-m\libc_nano.a(lib_a-sscanf.o)
__sf_fake_stderr                                  c:/program files (x86)/atollic/truestudio for arm 7.1.0/armtools/bin/../lib/gcc/arm-atollic-eabi/5.3.1/../../../../arm-atollic-eabi/lib/armv7-m\libc_nano.a(lib_a-findfp.o)
                                                  c:/program files (x86)/atollic/truestudio for arm 7.1.0/armtools/bin/../lib/gcc/arm-atollic-eabi/5.3.1/../../../../arm-atollic-eabi/lib/armv7-m\libc_nano.a(lib_a-ungetc.o)
                                                  c:/program files (x86)/atollic/truestudio for arm 7.1.0/armtools/bin/../lib/gcc/arm-atollic-eabi/5.3.1/../../../../arm-atollic-eabi/lib/armv7-m\libc_nano.a(lib_a-nano-vfprintf.o)
                                                  c:/program files (x86)/atollic/truestudio for arm 7.1.0/armtools/bin/../lib/gcc/arm-atollic-eabi/5.3.1/../../../../arm-atollic-eabi/lib/armv7-m\libc_nano.a(lib_a-fflush.o)
                                                  c:/program files (x86)/atollic/truestudio for arm 7.1.0/armtools/bin/../lib/gcc/arm-atollic-eabi/5.3.1/../../../../arm-atollic-eabi/lib/armv7-m\libc_nano.a(lib_a-wsetup.o)
                                                  c:/program files (x86)/atollic/truestudio for arm 7.1.0/armtools/bin/../lib/gcc/arm-atollic-eabi/5.3.1/../../../../arm-atollic-eabi/lib/armv7-m\libc_nano.a(lib_a-wbuf.o)
                                                  c:/program files (x86)/atollic/truestudio for arm 7.1.0/armtools/bin/../lib/gcc/arm-atollic-eabi/5.3.1/../../../../arm-atollic-eabi/lib/armv7-m\libc_nano.a(lib_a-puts.o)
                                                  c:/program files (x86)/atollic/truestudio for arm 7.1.0/armtools/bin/../lib/gcc/arm-atollic-eabi/5.3.1/../../../../arm-atollic-eabi/lib/armv7-m\libc_nano.a(lib_a-impure.o)
__sf_fake_stdin                                   c:/program files (x86)/atollic/truestudio for arm 7.1.0/armtools/bin/../lib/gcc/arm-atollic-eabi/5.3.1/../../../../arm-atollic-eabi/lib/armv7-m\libc_nano.a(lib_a-findfp.o)
                                                  c:/program files (x86)/atollic/truestudio for arm 7.1.0/armtools/bin/../lib/gcc/arm-atollic-eabi/5.3.1/../../../../arm-atollic-eabi/lib/armv7-m\libc_nano.a(lib_a-ungetc.o)
                                                  c:/program files (x86)/atollic/truestudio for arm 7.1.0/armtools/bin/../lib/gcc/arm-atollic-eabi/5.3.1/../../../../arm-atollic-eabi/lib/armv7-m\libc_nano.a(lib_a-nano-vfprintf.o)
                                                  c:/program files (x86)/atollic/truestudio for arm 7.1.0/armtools/bin/../lib/gcc/arm-atollic-eabi/5.3.1/../../../../arm-atollic-eabi/lib/armv7-m\libc_nano.a(lib_a-fflush.o)
                                                  c:/program files (x86)/atollic/truestudio for arm 7.1.0/armtools/bin/../lib/gcc/arm-atollic-eabi/5.3.1/../../../../arm-atollic-eabi/lib/armv7-m\libc_nano.a(lib_a-wsetup.o)
                                                  c:/program files (x86)/atollic/truestudio for arm 7.1.0/armtools/bin/../lib/gcc/arm-atollic-eabi/5.3.1/../../../../arm-atollic-eabi/lib/armv7-m\libc_nano.a(lib_a-wbuf.o)
                                                  c:/program files (x86)/atollic/truestudio for arm 7.1.0/armtools/bin/../lib/gcc/arm-atollic-eabi/5.3.1/../../../../arm-atollic-eabi/lib/armv7-m\libc_nano.a(lib_a-puts.o)
                                                  c:/program files (x86)/atollic/truestudio for arm 7.1.0/armtools/bin/../lib/gcc/arm-atollic-eabi/5.3.1/../../../../arm-atollic-eabi/lib/armv7-m\libc_nano.a(lib_a-impure.o)
__sf_fake_stdout                                  c:/program files (x86)/atollic/truestudio for arm 7.1.0/armtools/bin/../lib/gcc/arm-atollic-eabi/5.3.1/../../../../arm-atollic-eabi/lib/armv7-m\libc_nano.a(lib_a-findfp.o)
                                                  c:/program files (x86)/atollic/truestudio for arm 7.1.0/armtools/bin/../lib/gcc/arm-atollic-eabi/5.3.1/../../../../arm-atollic-eabi/lib/armv7-m\libc_nano.a(lib_a-ungetc.o)
                                                  c:/program files (x86)/atollic/truestudio for arm 7.1.0/armtools/bin/../lib/gcc/arm-atollic-eabi/5.3.1/../../../../arm-atollic-eabi/lib/armv7-m\libc_nano.a(lib_a-nano-vfprintf.o)
                                                  c:/program files (x86)/atollic/truestudio for arm 7.1.0/armtools/bin/../lib/gcc/arm-atollic-eabi/5.3.1/../../../../arm-atollic-eabi/lib/armv7-m\libc_nano.a(lib_a-fflush.o)
                                                  c:/program files (x86)/atollic/truestudio for arm 7.1.0/armtools/bin/../lib/gcc/arm-atollic-eabi/5.3.1/../../../../arm-atollic-eabi/lib/armv7-m\libc_nano.a(lib_a-wsetup.o)
                                                  c:/program files (x86)/atollic/truestudio for arm 7.1.0/armtools/bin/../lib/gcc/arm-atollic-eabi/5.3.1/../../../../arm-atollic-eabi/lib/armv7-m\libc_nano.a(lib_a-wbuf.o)
                                                  c:/program files (x86)/atollic/truestudio for arm 7.1.0/armtools/bin/../lib/gcc/arm-atollic-eabi/5.3.1/../../../../arm-atollic-eabi/lib/armv7-m\libc_nano.a(lib_a-puts.o)
                                                  c:/program files (x86)/atollic/truestudio for arm 7.1.0/armtools/bin/../lib/gcc/arm-atollic-eabi/5.3.1/../../../../arm-atollic-eabi/lib/armv7-m\libc_nano.a(lib_a-impure.o)
__sflush_r                                        c:/program files (x86)/atollic/truestudio for arm 7.1.0/armtools/bin/../lib/gcc/arm-atollic-eabi/5.3.1/../../../../arm-atollic-eabi/lib/armv7-m\libc_nano.a(lib_a-fflush.o)
__sfmoreglue                                      c:/program files (x86)/atollic/truestudio for arm 7.1.0/armtools/bin/../lib/gcc/arm-atollic-eabi/5.3.1/../../../../arm-atollic-eabi/lib/armv7-m\libc_nano.a(lib_a-findfp.o)
__sfp                                             c:/program files (x86)/atollic/truestudio for arm 7.1.0/armtools/bin/../lib/gcc/arm-atollic-eabi/5.3.1/../../../../arm-atollic-eabi/lib/armv7-m\libc_nano.a(lib_a-findfp.o)
__sfp_lock_acquire                                c:/program files (x86)/atollic/truestudio for arm 7.1.0/armtools/bin/../lib/gcc/arm-atollic-eabi/5.3.1/../../../../arm-atollic-eabi/lib/armv7-m\libc_nano.a(lib_a-findfp.o)
__sfp_lock_release                                c:/program files (x86)/atollic/truestudio for arm 7.1.0/armtools/bin/../lib/gcc/arm-atollic-eabi/5.3.1/../../../../arm-atollic-eabi/lib/armv7-m\libc_nano.a(lib_a-findfp.o)
__sfputs_r                                        c:/program files (x86)/atollic/truestudio for arm 7.1.0/armtools/bin/../lib/gcc/arm-atollic-eabi/5.3.1/../../../../arm-atollic-eabi/lib/armv7-m\libc_nano.a(lib_a-nano-vfprintf.o)
__sfvwrite_r                                      c:/program files (x86)/atollic/truestudio for arm 7.1.0/armtools/bin/../lib/gcc/arm-atollic-eabi/5.3.1/../../../../arm-atollic-eabi/lib/armv7-m\libc_nano.a(lib_a-fvwrite.o)
                                                  c:/program files (x86)/atollic/truestudio for arm 7.1.0/armtools/bin/../lib/gcc/arm-atollic-eabi/5.3.1/../../../../arm-atollic-eabi/lib/armv7-m\libc_nano.a(lib_a-nano-vfprintf.o)
__sinit                                           c:/program files (x86)/atollic/truestudio for arm 7.1.0/armtools/bin/../lib/gcc/arm-atollic-eabi/5.3.1/../../../../arm-atollic-eabi/lib/armv7-m\libc_nano.a(lib_a-findfp.o)
                                                  c:/program files (x86)/atollic/truestudio for arm 7.1.0/armtools/bin/../lib/gcc/arm-atollic-eabi/5.3.1/../../../../arm-atollic-eabi/lib/armv7-m\libc_nano.a(lib_a-ungetc.o)
                                                  c:/program files (x86)/atollic/truestudio for arm 7.1.0/armtools/bin/../lib/gcc/arm-atollic-eabi/5.3.1/../../../../arm-atollic-eabi/lib/armv7-m\libc_nano.a(lib_a-nano-vfprintf.o)
                                                  c:/program files (x86)/atollic/truestudio for arm 7.1.0/armtools/bin/../lib/gcc/arm-atollic-eabi/5.3.1/../../../../arm-atollic-eabi/lib/armv7-m\libc_nano.a(lib_a-fflush.o)
                                                  c:/program files (x86)/atollic/truestudio for arm 7.1.0/armtools/bin/../lib/gcc/arm-atollic-eabi/5.3.1/../../../../arm-atollic-eabi/lib/armv7-m\libc_nano.a(lib_a-wsetup.o)
                                                  c:/program files (x86)/atollic/truestudio for arm 7.1.0/armtools/bin/../lib/gcc/arm-atollic-eabi/5.3.1/../../../../arm-atollic-eabi/lib/armv7-m\libc_nano.a(lib_a-wbuf.o)
                                                  c:/program files (x86)/atollic/truestudio for arm 7.1.0/armtools/bin/../lib/gcc/arm-atollic-eabi/5.3.1/../../../../arm-atollic-eabi/lib/armv7-m\libc_nano.a(lib_a-puts.o)
                                                  c:/program files (x86)/atollic/truestudio for arm 7.1.0/armtools/bin/../lib/gcc/arm-atollic-eabi/5.3.1/../../../../arm-atollic-eabi/lib/armv7-m\libc_nano.a(lib_a-printf.o)
__sinit_lock_acquire                              c:/program files (x86)/atollic/truestudio for arm 7.1.0/armtools/bin/../lib/gcc/arm-atollic-eabi/5.3.1/../../../../arm-atollic-eabi/lib/armv7-m\libc_nano.a(lib_a-findfp.o)
__sinit_lock_release                              c:/program files (x86)/atollic/truestudio for arm 7.1.0/armtools/bin/../lib/gcc/arm-atollic-eabi/5.3.1/../../../../arm-atollic-eabi/lib/armv7-m\libc_nano.a(lib_a-findfp.o)
__smakebuf_r                                      c:/program files (x86)/atollic/truestudio for arm 7.1.0/armtools/bin/../lib/gcc/arm-atollic-eabi/5.3.1/../../../../arm-atollic-eabi/lib/armv7-m\libc_nano.a(lib_a-makebuf.o)
                                                  c:/program files (x86)/atollic/truestudio for arm 7.1.0/armtools/bin/../lib/gcc/arm-atollic-eabi/5.3.1/../../../../arm-atollic-eabi/lib/armv7-m\libc_nano.a(lib_a-wsetup.o)
__sprint_r                                        c:/program files (x86)/atollic/truestudio for arm 7.1.0/armtools/bin/../lib/gcc/arm-atollic-eabi/5.3.1/../../../../arm-atollic-eabi/lib/armv7-m\libc_nano.a(lib_a-nano-vfprintf.o)
__sread                                           c:/program files (x86)/atollic/truestudio for arm 7.1.0/armtools/bin/../lib/gcc/arm-atollic-eabi/5.3.1/../../../../arm-atollic-eabi/lib/armv7-m\libc_nano.a(lib_a-stdio.o)
                                                  c:/program files (x86)/atollic/truestudio for arm 7.1.0/armtools/bin/../lib/gcc/arm-atollic-eabi/5.3.1/../../../../arm-atollic-eabi/lib/armv7-m\libc_nano.a(lib_a-findfp.o)
__sseek                                           c:/program files (x86)/atollic/truestudio for arm 7.1.0/armtools/bin/../lib/gcc/arm-atollic-eabi/5.3.1/../../../../arm-atollic-eabi/lib/armv7-m\libc_nano.a(lib_a-stdio.o)
                                                  c:/program files (x86)/atollic/truestudio for arm 7.1.0/armtools/bin/../lib/gcc/arm-atollic-eabi/5.3.1/../../../../arm-atollic-eabi/lib/armv7-m\libc_nano.a(lib_a-findfp.o)
__ssprint_r                                       c:/program files (x86)/atollic/truestudio for arm 7.1.0/armtools/bin/../lib/gcc/arm-atollic-eabi/5.3.1/../../../../arm-atollic-eabi/lib/armv7-m\libc_nano.a(lib_a-nano-svfprintf.o)
__ssputs_r                                        c:/program files (x86)/atollic/truestudio for arm 7.1.0/armtools/bin/../lib/gcc/arm-atollic-eabi/5.3.1/../../../../arm-atollic-eabi/lib/armv7-m\libc_nano.a(lib_a-nano-svfprintf.o)
__ssrefill_r                                      c:/program files (x86)/atollic/truestudio for arm 7.1.0/armtools/bin/../lib/gcc/arm-atollic-eabi/5.3.1/../../../../arm-atollic-eabi/lib/armv7-m\libc_nano.a(lib_a-nano-svfscanf.o)
__ssvfiscanf_r                                    c:/program files (x86)/atollic/truestudio for arm 7.1.0/armtools/bin/../lib/gcc/arm-atollic-eabi/5.3.1/../../../../arm-atollic-eabi/lib/armv7-m\libc_nano.a(lib_a-nano-svfscanf.o)
__ssvfscanf_r                                     c:/program files (x86)/atollic/truestudio for arm 7.1.0/armtools/bin/../lib/gcc/arm-atollic-eabi/5.3.1/../../../../arm-atollic-eabi/lib/armv7-m\libc_nano.a(lib_a-nano-svfscanf.o)
                                                  c:/program files (x86)/atollic/truestudio for arm 7.1.0/armtools/bin/../lib/gcc/arm-atollic-eabi/5.3.1/../../../../arm-atollic-eabi/lib/armv7-m\libc_nano.a(lib_a-sscanf.o)
__subdf3                                          c:/program files (x86)/atollic/truestudio for arm 7.1.0/armtools/bin/../lib/gcc/arm-atollic-eabi/5.3.1/armv7-m\libgcc.a(_arm_addsubdf3.o)
__submore                                         c:/program files (x86)/atollic/truestudio for arm 7.1.0/armtools/bin/../lib/gcc/arm-atollic-eabi/5.3.1/../../../../arm-atollic-eabi/lib/armv7-m\libc_nano.a(lib_a-ungetc.o)
                                                  c:/program files (x86)/atollic/truestudio for arm 7.1.0/armtools/bin/../lib/gcc/arm-atollic-eabi/5.3.1/../../../../arm-atollic-eabi/lib/armv7-m\libc_nano.a(lib_a-nano-svfscanf.o)
__swbuf                                           c:/program files (x86)/atollic/truestudio for arm 7.1.0/armtools/bin/../lib/gcc/arm-atollic-eabi/5.3.1/../../../../arm-atollic-eabi/lib/armv7-m\libc_nano.a(lib_a-wbuf.o)
__swbuf_r                                         c:/program files (x86)/atollic/truestudio for arm 7.1.0/armtools/bin/../lib/gcc/arm-atollic-eabi/5.3.1/../../../../arm-atollic-eabi/lib/armv7-m\libc_nano.a(lib_a-wbuf.o)
                                                  c:/program files (x86)/atollic/truestudio for arm 7.1.0/armtools/bin/../lib/gcc/arm-atollic-eabi/5.3.1/../../../../arm-atollic-eabi/lib/armv7-m\libc_nano.a(lib_a-nano-vfprintf.o)
                                                  c:/program files (x86)/atollic/truestudio for arm 7.1.0/armtools/bin/../lib/gcc/arm-atollic-eabi/5.3.1/../../../../arm-atollic-eabi/lib/armv7-m\libc_nano.a(lib_a-puts.o)
__swhatbuf_r                                      c:/program files (x86)/atollic/truestudio for arm 7.1.0/armtools/bin/../lib/gcc/arm-atollic-eabi/5.3.1/../../../../arm-atollic-eabi/lib/armv7-m\libc_nano.a(lib_a-makebuf.o)
__swrite                                          c:/program files (x86)/atollic/truestudio for arm 7.1.0/armtools/bin/../lib/gcc/arm-atollic-eabi/5.3.1/../../../../arm-atollic-eabi/lib/armv7-m\libc_nano.a(lib_a-stdio.o)
                                                  c:/program files (x86)/atollic/truestudio for arm 7.1.0/armtools/bin/../lib/gcc/arm-atollic-eabi/5.3.1/../../../../arm-atollic-eabi/lib/armv7-m\libc_nano.a(lib_a-findfp.o)
__swsetup_r                                       c:/program files (x86)/atollic/truestudio for arm 7.1.0/armtools/bin/../lib/gcc/arm-atollic-eabi/5.3.1/../../../../arm-atollic-eabi/lib/armv7-m\libc_nano.a(lib_a-wsetup.o)
                                                  c:/program files (x86)/atollic/truestudio for arm 7.1.0/armtools/bin/../lib/gcc/arm-atollic-eabi/5.3.1/../../../../arm-atollic-eabi/lib/armv7-m\libc_nano.a(lib_a-fvwrite.o)
                                                  c:/program files (x86)/atollic/truestudio for arm 7.1.0/armtools/bin/../lib/gcc/arm-atollic-eabi/5.3.1/../../../../arm-atollic-eabi/lib/armv7-m\libc_nano.a(lib_a-nano-vfprintf.o)
                                                  c:/program files (x86)/atollic/truestudio for arm 7.1.0/armtools/bin/../lib/gcc/arm-atollic-eabi/5.3.1/../../../../arm-atollic-eabi/lib/armv7-m\libc_nano.a(lib_a-wbuf.o)
                                                  c:/program files (x86)/atollic/truestudio for arm 7.1.0/armtools/bin/../lib/gcc/arm-atollic-eabi/5.3.1/../../../../arm-atollic-eabi/lib/armv7-m\libc_nano.a(lib_a-puts.o)
__tz_lock                                         c:/program files (x86)/atollic/truestudio for arm 7.1.0/armtools/bin/../lib/gcc/arm-atollic-eabi/5.3.1/../../../../arm-atollic-eabi/lib/armv7-m\libc_nano.a(lib_a-tzlock.o)
                                                  c:/program files (x86)/atollic/truestudio for arm 7.1.0/armtools/bin/../lib/gcc/arm-atollic-eabi/5.3.1/../../../../arm-atollic-eabi/lib/armv7-m\libc_nano.a(lib_a-tzset_r.o)
                                                  c:/program files (x86)/atollic/truestudio for arm 7.1.0/armtools/bin/../lib/gcc/arm-atollic-eabi/5.3.1/../../../../arm-atollic-eabi/lib/armv7-m\libc_nano.a(lib_a-tzset.o)
                                                  c:/program files (x86)/atollic/truestudio for arm 7.1.0/armtools/bin/../lib/gcc/arm-atollic-eabi/5.3.1/../../../../arm-atollic-eabi/lib/armv7-m\libc_nano.a(lib_a-mktime.o)
                                                  c:/program files (x86)/atollic/truestudio for arm 7.1.0/armtools/bin/../lib/gcc/arm-atollic-eabi/5.3.1/../../../../arm-atollic-eabi/lib/armv7-m\libc_nano.a(lib_a-lcltime_r.o)
__tz_unlock                                       c:/program files (x86)/atollic/truestudio for arm 7.1.0/armtools/bin/../lib/gcc/arm-atollic-eabi/5.3.1/../../../../arm-atollic-eabi/lib/armv7-m\libc_nano.a(lib_a-tzlock.o)
                                                  c:/program files (x86)/atollic/truestudio for arm 7.1.0/armtools/bin/../lib/gcc/arm-atollic-eabi/5.3.1/../../../../arm-atollic-eabi/lib/armv7-m\libc_nano.a(lib_a-tzset_r.o)
                                                  c:/program files (x86)/atollic/truestudio for arm 7.1.0/armtools/bin/../lib/gcc/arm-atollic-eabi/5.3.1/../../../../arm-atollic-eabi/lib/armv7-m\libc_nano.a(lib_a-tzset.o)
                                                  c:/program files (x86)/atollic/truestudio for arm 7.1.0/armtools/bin/../lib/gcc/arm-atollic-eabi/5.3.1/../../../../arm-atollic-eabi/lib/armv7-m\libc_nano.a(lib_a-mktime.o)
                                                  c:/program files (x86)/atollic/truestudio for arm 7.1.0/armtools/bin/../lib/gcc/arm-atollic-eabi/5.3.1/../../../../arm-atollic-eabi/lib/armv7-m\libc_nano.a(lib_a-lcltime_r.o)
__tzcalc_limits                                   c:/program files (x86)/atollic/truestudio for arm 7.1.0/armtools/bin/../lib/gcc/arm-atollic-eabi/5.3.1/../../../../arm-atollic-eabi/lib/armv7-m\libc_nano.a(lib_a-tzcalc_limits.o)
                                                  c:/program files (x86)/atollic/truestudio for arm 7.1.0/armtools/bin/../lib/gcc/arm-atollic-eabi/5.3.1/../../../../arm-atollic-eabi/lib/armv7-m\libc_nano.a(lib_a-tzset_r.o)
                                                  c:/program files (x86)/atollic/truestudio for arm 7.1.0/armtools/bin/../lib/gcc/arm-atollic-eabi/5.3.1/../../../../arm-atollic-eabi/lib/armv7-m\libc_nano.a(lib_a-mktime.o)
                                                  c:/program files (x86)/atollic/truestudio for arm 7.1.0/armtools/bin/../lib/gcc/arm-atollic-eabi/5.3.1/../../../../arm-atollic-eabi/lib/armv7-m\libc_nano.a(lib_a-lcltime_r.o)
__udivmoddi4                                      c:/program files (x86)/atollic/truestudio for arm 7.1.0/armtools/bin/../lib/gcc/arm-atollic-eabi/5.3.1/armv7-m\libgcc.a(_udivmoddi4.o)
                                                  c:/program files (x86)/atollic/truestudio for arm 7.1.0/armtools/bin/../lib/gcc/arm-atollic-eabi/5.3.1/armv7-m\libgcc.a(_aeabi_ldivmod.o)
_calloc_r                                         c:/program files (x86)/atollic/truestudio for arm 7.1.0/armtools/bin/../lib/gcc/arm-atollic-eabi/5.3.1/../../../../arm-atollic-eabi/lib/armv7-m\libc_nano.a(lib_a-nano-callocr.o)
                                                  c:/program files (x86)/atollic/truestudio for arm 7.1.0/armtools/bin/../lib/gcc/arm-atollic-eabi/5.3.1/../../../../arm-atollic-eabi/lib/armv7-m\libc_nano.a(lib_a-calloc.o)
_cleanup                                          c:/program files (x86)/atollic/truestudio for arm 7.1.0/armtools/bin/../lib/gcc/arm-atollic-eabi/5.3.1/../../../../arm-atollic-eabi/lib/armv7-m\libc_nano.a(lib_a-findfp.o)
_cleanup_r                                        c:/program files (x86)/atollic/truestudio for arm 7.1.0/armtools/bin/../lib/gcc/arm-atollic-eabi/5.3.1/../../../../arm-atollic-eabi/lib/armv7-m\libc_nano.a(lib_a-findfp.o)
                                                  c:/program files (x86)/atollic/truestudio for arm 7.1.0/armtools/bin/../lib/gcc/arm-atollic-eabi/5.3.1/../../../../arm-atollic-eabi/lib/armv7-m\libc_nano.a(lib_a-makebuf.o)
_close                                            c:/program files (x86)/atollic/truestudio for arm 7.1.0/armtools/bin/../lib/gcc/arm-atollic-eabi/5.3.1/../../../../arm-atollic-eabi/lib/armv7-m\libnosys.a(close.o)
                                                  c:/program files (x86)/atollic/truestudio for arm 7.1.0/armtools/bin/../lib/gcc/arm-atollic-eabi/5.3.1/../../../../arm-atollic-eabi/lib/armv7-m\libc_nano.a(lib_a-closer.o)
_close_r                                          c:/program files (x86)/atollic/truestudio for arm 7.1.0/armtools/bin/../lib/gcc/arm-atollic-eabi/5.3.1/../../../../arm-atollic-eabi/lib/armv7-m\libc_nano.a(lib_a-closer.o)
                                                  c:/program files (x86)/atollic/truestudio for arm 7.1.0/armtools/bin/../lib/gcc/arm-atollic-eabi/5.3.1/../../../../arm-atollic-eabi/lib/armv7-m\libc_nano.a(lib_a-stdio.o)
_ctype_                                           c:/program files (x86)/atollic/truestudio for arm 7.1.0/armtools/bin/../lib/gcc/arm-atollic-eabi/5.3.1/../../../../arm-atollic-eabi/lib/armv7-m\libc_nano.a(lib_a-ctype_.o)
_daylight                                         c:/program files (x86)/atollic/truestudio for arm 7.1.0/armtools/bin/../lib/gcc/arm-atollic-eabi/5.3.1/../../../../arm-atollic-eabi/lib/armv7-m\libc_nano.a(lib_a-tzvars.o)
                                                  c:/program files (x86)/atollic/truestudio for arm 7.1.0/armtools/bin/../lib/gcc/arm-atollic-eabi/5.3.1/../../../../arm-atollic-eabi/lib/armv7-m\libc_nano.a(lib_a-tzset_r.o)
                                                  c:/program files (x86)/atollic/truestudio for arm 7.1.0/armtools/bin/../lib/gcc/arm-atollic-eabi/5.3.1/../../../../arm-atollic-eabi/lib/armv7-m\libc_nano.a(lib_a-mktime.o)
                                                  c:/program files (x86)/atollic/truestudio for arm 7.1.0/armtools/bin/../lib/gcc/arm-atollic-eabi/5.3.1/../../../../arm-atollic-eabi/lib/armv7-m\libc_nano.a(lib_a-lcltime_r.o)
_ebss                                             src\startup_LPC17xx.o
_edata                                            src\startup_LPC17xx.o
_estack                                           src\startup_LPC17xx.o
_fflush_r                                         c:/program files (x86)/atollic/truestudio for arm 7.1.0/armtools/bin/../lib/gcc/arm-atollic-eabi/5.3.1/../../../../arm-atollic-eabi/lib/armv7-m\libc_nano.a(lib_a-fflush.o)
                                                  c:/program files (x86)/atollic/truestudio for arm 7.1.0/armtools/bin/../lib/gcc/arm-atollic-eabi/5.3.1/../../../../arm-atollic-eabi/lib/armv7-m\libc_nano.a(lib_a-fvwrite.o)
                                                  c:/program files (x86)/atollic/truestudio for arm 7.1.0/armtools/bin/../lib/gcc/arm-atollic-eabi/5.3.1/../../../../arm-atollic-eabi/lib/armv7-m\libc_nano.a(lib_a-ungetc.o)
                                                  c:/program files (x86)/atollic/truestudio for arm 7.1.0/armtools/bin/../lib/gcc/arm-atollic-eabi/5.3.1/../../../../arm-atollic-eabi/lib/armv7-m\libc_nano.a(lib_a-findfp.o)
                                                  c:/program files (x86)/atollic/truestudio for arm 7.1.0/armtools/bin/../lib/gcc/arm-atollic-eabi/5.3.1/../../../../arm-atollic-eabi/lib/armv7-m\libc_nano.a(lib_a-wbuf.o)
_findenv_r                                        c:/program files (x86)/atollic/truestudio for arm 7.1.0/armtools/bin/../lib/gcc/arm-atollic-eabi/5.3.1/../../../../arm-atollic-eabi/lib/armv7-m\libc_nano.a(lib_a-getenv_r.o)
_fini                                             c:/program files (x86)/atollic/truestudio for arm 7.1.0/armtools/bin/../lib/gcc/arm-atollic-eabi/5.3.1/armv7-m/crti.o
_free_r                                           c:/program files (x86)/atollic/truestudio for arm 7.1.0/armtools/bin/../lib/gcc/arm-atollic-eabi/5.3.1/../../../../arm-atollic-eabi/lib/armv7-m\libc_nano.a(lib_a-nano-freer.o)
                                                  c:/program files (x86)/atollic/truestudio for arm 7.1.0/armtools/bin/../lib/gcc/arm-atollic-eabi/5.3.1/../../../../arm-atollic-eabi/lib/armv7-m\libc_nano.a(lib_a-fvwrite.o)
                                                  c:/program files (x86)/atollic/truestudio for arm 7.1.0/armtools/bin/../lib/gcc/arm-atollic-eabi/5.3.1/../../../../arm-atollic-eabi/lib/armv7-m\libc_nano.a(lib_a-reent.o)
                                                  c:/program files (x86)/atollic/truestudio for arm 7.1.0/armtools/bin/../lib/gcc/arm-atollic-eabi/5.3.1/../../../../arm-atollic-eabi/lib/armv7-m\libc_nano.a(lib_a-nano-svfscanf.o)
                                                  c:/program files (x86)/atollic/truestudio for arm 7.1.0/armtools/bin/../lib/gcc/arm-atollic-eabi/5.3.1/../../../../arm-atollic-eabi/lib/armv7-m\libc_nano.a(lib_a-nano-svfprintf.o)
                                                  c:/program files (x86)/atollic/truestudio for arm 7.1.0/armtools/bin/../lib/gcc/arm-atollic-eabi/5.3.1/../../../../arm-atollic-eabi/lib/armv7-m\libc_nano.a(lib_a-nano-reallocr.o)
                                                  c:/program files (x86)/atollic/truestudio for arm 7.1.0/armtools/bin/../lib/gcc/arm-atollic-eabi/5.3.1/../../../../arm-atollic-eabi/lib/armv7-m\libc_nano.a(lib_a-fflush.o)
                                                  c:/program files (x86)/atollic/truestudio for arm 7.1.0/armtools/bin/../lib/gcc/arm-atollic-eabi/5.3.1/../../../../arm-atollic-eabi/lib/armv7-m\libc_nano.a(lib_a-wsetup.o)
                                                  c:/program files (x86)/atollic/truestudio for arm 7.1.0/armtools/bin/../lib/gcc/arm-atollic-eabi/5.3.1/../../../../arm-atollic-eabi/lib/armv7-m\libc_nano.a(lib_a-malloc.o)
_fstat                                            c:/program files (x86)/atollic/truestudio for arm 7.1.0/armtools/bin/../lib/gcc/arm-atollic-eabi/5.3.1/../../../../arm-atollic-eabi/lib/armv7-m\libnosys.a(fstat.o)
                                                  c:/program files (x86)/atollic/truestudio for arm 7.1.0/armtools/bin/../lib/gcc/arm-atollic-eabi/5.3.1/../../../../arm-atollic-eabi/lib/armv7-m\libc_nano.a(lib_a-fstatr.o)
_fstat_r                                          c:/program files (x86)/atollic/truestudio for arm 7.1.0/armtools/bin/../lib/gcc/arm-atollic-eabi/5.3.1/../../../../arm-atollic-eabi/lib/armv7-m\libc_nano.a(lib_a-fstatr.o)
                                                  c:/program files (x86)/atollic/truestudio for arm 7.1.0/armtools/bin/../lib/gcc/arm-atollic-eabi/5.3.1/../../../../arm-atollic-eabi/lib/armv7-m\libc_nano.a(lib_a-makebuf.o)
_fwalk                                            c:/program files (x86)/atollic/truestudio for arm 7.1.0/armtools/bin/../lib/gcc/arm-atollic-eabi/5.3.1/../../../../arm-atollic-eabi/lib/armv7-m\libc_nano.a(lib_a-fwalk.o)
                                                  c:/program files (x86)/atollic/truestudio for arm 7.1.0/armtools/bin/../lib/gcc/arm-atollic-eabi/5.3.1/../../../../arm-atollic-eabi/lib/armv7-m\libc_nano.a(lib_a-findfp.o)
_fwalk_reent                                      c:/program files (x86)/atollic/truestudio for arm 7.1.0/armtools/bin/../lib/gcc/arm-atollic-eabi/5.3.1/../../../../arm-atollic-eabi/lib/armv7-m\libc_nano.a(lib_a-fwalk.o)
                                                  c:/program files (x86)/atollic/truestudio for arm 7.1.0/armtools/bin/../lib/gcc/arm-atollic-eabi/5.3.1/../../../../arm-atollic-eabi/lib/armv7-m\libc_nano.a(lib_a-findfp.o)
                                                  c:/program files (x86)/atollic/truestudio for arm 7.1.0/armtools/bin/../lib/gcc/arm-atollic-eabi/5.3.1/../../../../arm-atollic-eabi/lib/armv7-m\libc_nano.a(lib_a-fflush.o)
_getenv_r                                         c:/program files (x86)/atollic/truestudio for arm 7.1.0/armtools/bin/../lib/gcc/arm-atollic-eabi/5.3.1/../../../../arm-atollic-eabi/lib/armv7-m\libc_nano.a(lib_a-getenv_r.o)
                                                  c:/program files (x86)/atollic/truestudio for arm 7.1.0/armtools/bin/../lib/gcc/arm-atollic-eabi/5.3.1/../../../../arm-atollic-eabi/lib/armv7-m\libc_nano.a(lib_a-tzset_r.o)
_global_impure_ptr                                c:/program files (x86)/atollic/truestudio for arm 7.1.0/armtools/bin/../lib/gcc/arm-atollic-eabi/5.3.1/../../../../arm-atollic-eabi/lib/armv7-m\libc_nano.a(lib_a-impure.o)
                                                  c:/program files (x86)/atollic/truestudio for arm 7.1.0/armtools/bin/../lib/gcc/arm-atollic-eabi/5.3.1/../../../../arm-atollic-eabi/lib/armv7-m\libc_nano.a(lib_a-findfp.o)
                                                  c:/program files (x86)/atollic/truestudio for arm 7.1.0/armtools/bin/../lib/gcc/arm-atollic-eabi/5.3.1/../../../../arm-atollic-eabi/lib/armv7-m\libc_nano.a(lib_a-fflush.o)
_impure_ptr                                       c:/program files (x86)/atollic/truestudio for arm 7.1.0/armtools/bin/../lib/gcc/arm-atollic-eabi/5.3.1/../../../../arm-atollic-eabi/lib/armv7-m\libc_nano.a(lib_a-impure.o)
                                                  c:/program files (x86)/atollic/truestudio for arm 7.1.0/armtools/bin/../lib/gcc/arm-atollic-eabi/5.3.1/../../../../arm-atollic-eabi/lib/armv7-m\libc_nano.a(lib_a-ungetc.o)
                                                  c:/program files (x86)/atollic/truestudio for arm 7.1.0/armtools/bin/../lib/gcc/arm-atollic-eabi/5.3.1/../../../../arm-atollic-eabi/lib/armv7-m\libc_nano.a(lib_a-strtoul.o)
                                                  c:/program files (x86)/atollic/truestudio for arm 7.1.0/armtools/bin/../lib/gcc/arm-atollic-eabi/5.3.1/../../../../arm-atollic-eabi/lib/armv7-m\libc_nano.a(lib_a-strtol.o)
                                                  c:/program files (x86)/atollic/truestudio for arm 7.1.0/armtools/bin/../lib/gcc/arm-atollic-eabi/5.3.1/../../../../arm-atollic-eabi/lib/armv7-m\libc_nano.a(lib_a-reent.o)
                                                  c:/program files (x86)/atollic/truestudio for arm 7.1.0/armtools/bin/../lib/gcc/arm-atollic-eabi/5.3.1/../../../../arm-atollic-eabi/lib/armv7-m\libc_nano.a(lib_a-nano-vfprintf.o)
                                                  c:/program files (x86)/atollic/truestudio for arm 7.1.0/armtools/bin/../lib/gcc/arm-atollic-eabi/5.3.1/../../../../arm-atollic-eabi/lib/armv7-m\libc_nano.a(lib_a-findfp.o)
                                                  c:/program files (x86)/atollic/truestudio for arm 7.1.0/armtools/bin/../lib/gcc/arm-atollic-eabi/5.3.1/../../../../arm-atollic-eabi/lib/armv7-m\libc_nano.a(lib_a-fflush.o)
                                                  c:/program files (x86)/atollic/truestudio for arm 7.1.0/armtools/bin/../lib/gcc/arm-atollic-eabi/5.3.1/../../../../arm-atollic-eabi/lib/armv7-m\libc_nano.a(lib_a-wsetup.o)
                                                  c:/program files (x86)/atollic/truestudio for arm 7.1.0/armtools/bin/../lib/gcc/arm-atollic-eabi/5.3.1/../../../../arm-atollic-eabi/lib/armv7-m\libc_nano.a(lib_a-wbuf.o)
                                                  c:/program files (x86)/atollic/truestudio for arm 7.1.0/armtools/bin/../lib/gcc/arm-atollic-eabi/5.3.1/../../../../arm-atollic-eabi/lib/armv7-m\libc_nano.a(lib_a-tzset.o)
                                                  c:/program files (x86)/atollic/truestudio for arm 7.1.0/armtools/bin/../lib/gcc/arm-atollic-eabi/5.3.1/../../../../arm-atollic-eabi/lib/armv7-m\libc_nano.a(lib_a-sscanf.o)
                                                  c:/program files (x86)/atollic/truestudio for arm 7.1.0/armtools/bin/../lib/gcc/arm-atollic-eabi/5.3.1/../../../../arm-atollic-eabi/lib/armv7-m\libc_nano.a(lib_a-sprintf.o)
                                                  c:/program files (x86)/atollic/truestudio for arm 7.1.0/armtools/bin/../lib/gcc/arm-atollic-eabi/5.3.1/../../../../arm-atollic-eabi/lib/armv7-m\libc_nano.a(lib_a-realloc.o)
                                                  c:/program files (x86)/atollic/truestudio for arm 7.1.0/armtools/bin/../lib/gcc/arm-atollic-eabi/5.3.1/../../../../arm-atollic-eabi/lib/armv7-m\libc_nano.a(lib_a-puts.o)
                                                  c:/program files (x86)/atollic/truestudio for arm 7.1.0/armtools/bin/../lib/gcc/arm-atollic-eabi/5.3.1/../../../../arm-atollic-eabi/lib/armv7-m\libc_nano.a(lib_a-printf.o)
                                                  c:/program files (x86)/atollic/truestudio for arm 7.1.0/armtools/bin/../lib/gcc/arm-atollic-eabi/5.3.1/../../../../arm-atollic-eabi/lib/armv7-m\libc_nano.a(lib_a-malloc.o)
                                                  c:/program files (x86)/atollic/truestudio for arm 7.1.0/armtools/bin/../lib/gcc/arm-atollic-eabi/5.3.1/../../../../arm-atollic-eabi/lib/armv7-m\libc_nano.a(lib_a-lcltime.o)
                                                  c:/program files (x86)/atollic/truestudio for arm 7.1.0/armtools/bin/../lib/gcc/arm-atollic-eabi/5.3.1/../../../../arm-atollic-eabi/lib/armv7-m\libc_nano.a(lib_a-calloc.o)
_init                                             c:/program files (x86)/atollic/truestudio for arm 7.1.0/armtools/bin/../lib/gcc/arm-atollic-eabi/5.3.1/armv7-m/crti.o
                                                  c:/program files (x86)/atollic/truestudio for arm 7.1.0/armtools/bin/../lib/gcc/arm-atollic-eabi/5.3.1/../../../../arm-atollic-eabi/lib/armv7-m\libc_nano.a(lib_a-init.o)
_iprintf_r                                        c:/program files (x86)/atollic/truestudio for arm 7.1.0/armtools/bin/../lib/gcc/arm-atollic-eabi/5.3.1/../../../../arm-atollic-eabi/lib/armv7-m\libc_nano.a(lib_a-printf.o)
_isatty                                           c:/program files (x86)/atollic/truestudio for arm 7.1.0/armtools/bin/../lib/gcc/arm-atollic-eabi/5.3.1/../../../../arm-atollic-eabi/lib/armv7-m\libnosys.a(isatty.o)
                                                  c:/program files (x86)/atollic/truestudio for arm 7.1.0/armtools/bin/../lib/gcc/arm-atollic-eabi/5.3.1/../../../../arm-atollic-eabi/lib/armv7-m\libc_nano.a(lib_a-isattyr.o)
_isatty_r                                         c:/program files (x86)/atollic/truestudio for arm 7.1.0/armtools/bin/../lib/gcc/arm-atollic-eabi/5.3.1/../../../../arm-atollic-eabi/lib/armv7-m\libc_nano.a(lib_a-isattyr.o)
                                                  c:/program files (x86)/atollic/truestudio for arm 7.1.0/armtools/bin/../lib/gcc/arm-atollic-eabi/5.3.1/../../../../arm-atollic-eabi/lib/armv7-m\libc_nano.a(lib_a-makebuf.o)
_lseek                                            c:/program files (x86)/atollic/truestudio for arm 7.1.0/armtools/bin/../lib/gcc/arm-atollic-eabi/5.3.1/../../../../arm-atollic-eabi/lib/armv7-m\libnosys.a(lseek.o)
                                                  c:/program files (x86)/atollic/truestudio for arm 7.1.0/armtools/bin/../lib/gcc/arm-atollic-eabi/5.3.1/../../../../arm-atollic-eabi/lib/armv7-m\libc_nano.a(lib_a-lseekr.o)
_lseek_r                                          c:/program files (x86)/atollic/truestudio for arm 7.1.0/armtools/bin/../lib/gcc/arm-atollic-eabi/5.3.1/../../../../arm-atollic-eabi/lib/armv7-m\libc_nano.a(lib_a-lseekr.o)
                                                  c:/program files (x86)/atollic/truestudio for arm 7.1.0/armtools/bin/../lib/gcc/arm-atollic-eabi/5.3.1/../../../../arm-atollic-eabi/lib/armv7-m\libc_nano.a(lib_a-stdio.o)
_malloc_r                                         c:/program files (x86)/atollic/truestudio for arm 7.1.0/armtools/bin/../lib/gcc/arm-atollic-eabi/5.3.1/../../../../arm-atollic-eabi/lib/armv7-m\libc_nano.a(lib_a-nano-mallocr.o)
                                                  c:/program files (x86)/atollic/truestudio for arm 7.1.0/armtools/bin/../lib/gcc/arm-atollic-eabi/5.3.1/../../../../arm-atollic-eabi/lib/armv7-m\libc_nano.a(lib_a-fvwrite.o)
                                                  c:/program files (x86)/atollic/truestudio for arm 7.1.0/armtools/bin/../lib/gcc/arm-atollic-eabi/5.3.1/../../../../arm-atollic-eabi/lib/armv7-m\libc_nano.a(lib_a-ungetc.o)
                                                  c:/program files (x86)/atollic/truestudio for arm 7.1.0/armtools/bin/../lib/gcc/arm-atollic-eabi/5.3.1/../../../../arm-atollic-eabi/lib/armv7-m\libc_nano.a(lib_a-nano-svfprintf.o)
                                                  c:/program files (x86)/atollic/truestudio for arm 7.1.0/armtools/bin/../lib/gcc/arm-atollic-eabi/5.3.1/../../../../arm-atollic-eabi/lib/armv7-m\libc_nano.a(lib_a-nano-reallocr.o)
                                                  c:/program files (x86)/atollic/truestudio for arm 7.1.0/armtools/bin/../lib/gcc/arm-atollic-eabi/5.3.1/../../../../arm-atollic-eabi/lib/armv7-m\libc_nano.a(lib_a-makebuf.o)
                                                  c:/program files (x86)/atollic/truestudio for arm 7.1.0/armtools/bin/../lib/gcc/arm-atollic-eabi/5.3.1/../../../../arm-atollic-eabi/lib/armv7-m\libc_nano.a(lib_a-findfp.o)
                                                  c:/program files (x86)/atollic/truestudio for arm 7.1.0/armtools/bin/../lib/gcc/arm-atollic-eabi/5.3.1/../../../../arm-atollic-eabi/lib/armv7-m\libc_nano.a(lib_a-tzset_r.o)
                                                  c:/program files (x86)/atollic/truestudio for arm 7.1.0/armtools/bin/../lib/gcc/arm-atollic-eabi/5.3.1/../../../../arm-atollic-eabi/lib/armv7-m\libc_nano.a(lib_a-nano-callocr.o)
                                                  c:/program files (x86)/atollic/truestudio for arm 7.1.0/armtools/bin/../lib/gcc/arm-atollic-eabi/5.3.1/../../../../arm-atollic-eabi/lib/armv7-m\libc_nano.a(lib_a-malloc.o)
_malloc_usable_size_r                             c:/program files (x86)/atollic/truestudio for arm 7.1.0/armtools/bin/../lib/gcc/arm-atollic-eabi/5.3.1/../../../../arm-atollic-eabi/lib/armv7-m\libc_nano.a(lib_a-nano-msizer.o)
                                                  c:/program files (x86)/atollic/truestudio for arm 7.1.0/armtools/bin/../lib/gcc/arm-atollic-eabi/5.3.1/../../../../arm-atollic-eabi/lib/armv7-m\libc_nano.a(lib_a-nano-reallocr.o)
_printf_common                                    c:/program files (x86)/atollic/truestudio for arm 7.1.0/armtools/bin/../lib/gcc/arm-atollic-eabi/5.3.1/../../../../arm-atollic-eabi/lib/armv7-m\libc_nano.a(lib_a-nano-vfprintf_i.o)
_printf_float                                     c:/program files (x86)/atollic/truestudio for arm 7.1.0/armtools/bin/../lib/gcc/arm-atollic-eabi/5.3.1/../../../../arm-atollic-eabi/lib/armv7-m\libc_nano.a(lib_a-nano-vfprintf.o)
                                                  c:/program files (x86)/atollic/truestudio for arm 7.1.0/armtools/bin/../lib/gcc/arm-atollic-eabi/5.3.1/../../../../arm-atollic-eabi/lib/armv7-m\libc_nano.a(lib_a-nano-svfprintf.o)
_printf_i                                         c:/program files (x86)/atollic/truestudio for arm 7.1.0/armtools/bin/../lib/gcc/arm-atollic-eabi/5.3.1/../../../../arm-atollic-eabi/lib/armv7-m\libc_nano.a(lib_a-nano-vfprintf_i.o)
                                                  c:/program files (x86)/atollic/truestudio for arm 7.1.0/armtools/bin/../lib/gcc/arm-atollic-eabi/5.3.1/../../../../arm-atollic-eabi/lib/armv7-m\libc_nano.a(lib_a-nano-vfprintf.o)
                                                  c:/program files (x86)/atollic/truestudio for arm 7.1.0/armtools/bin/../lib/gcc/arm-atollic-eabi/5.3.1/../../../../arm-atollic-eabi/lib/armv7-m\libc_nano.a(lib_a-nano-svfprintf.o)
_printf_r                                         c:/program files (x86)/atollic/truestudio for arm 7.1.0/armtools/bin/../lib/gcc/arm-atollic-eabi/5.3.1/../../../../arm-atollic-eabi/lib/armv7-m\libc_nano.a(lib_a-printf.o)
_puts_r                                           c:/program files (x86)/atollic/truestudio for arm 7.1.0/armtools/bin/../lib/gcc/arm-atollic-eabi/5.3.1/../../../../arm-atollic-eabi/lib/armv7-m\libc_nano.a(lib_a-puts.o)
_read                                             c:/program files (x86)/atollic/truestudio for arm 7.1.0/armtools/bin/../lib/gcc/arm-atollic-eabi/5.3.1/../../../../arm-atollic-eabi/lib/armv7-m\libnosys.a(read.o)
                                                  c:/program files (x86)/atollic/truestudio for arm 7.1.0/armtools/bin/../lib/gcc/arm-atollic-eabi/5.3.1/../../../../arm-atollic-eabi/lib/armv7-m\libc_nano.a(lib_a-readr.o)
_read_r                                           c:/program files (x86)/atollic/truestudio for arm 7.1.0/armtools/bin/../lib/gcc/arm-atollic-eabi/5.3.1/../../../../arm-atollic-eabi/lib/armv7-m\libc_nano.a(lib_a-readr.o)
                                                  c:/program files (x86)/atollic/truestudio for arm 7.1.0/armtools/bin/../lib/gcc/arm-atollic-eabi/5.3.1/../../../../arm-atollic-eabi/lib/armv7-m\libc_nano.a(lib_a-stdio.o)
_realloc_r                                        c:/program files (x86)/atollic/truestudio for arm 7.1.0/armtools/bin/../lib/gcc/arm-atollic-eabi/5.3.1/../../../../arm-atollic-eabi/lib/armv7-m\libc_nano.a(lib_a-nano-reallocr.o)
                                                  c:/program files (x86)/atollic/truestudio for arm 7.1.0/armtools/bin/../lib/gcc/arm-atollic-eabi/5.3.1/../../../../arm-atollic-eabi/lib/armv7-m\libc_nano.a(lib_a-fvwrite.o)
                                                  c:/program files (x86)/atollic/truestudio for arm 7.1.0/armtools/bin/../lib/gcc/arm-atollic-eabi/5.3.1/../../../../arm-atollic-eabi/lib/armv7-m\libc_nano.a(lib_a-ungetc.o)
                                                  c:/program files (x86)/atollic/truestudio for arm 7.1.0/armtools/bin/../lib/gcc/arm-atollic-eabi/5.3.1/../../../../arm-atollic-eabi/lib/armv7-m\libc_nano.a(lib_a-nano-svfprintf.o)
                                                  c:/program files (x86)/atollic/truestudio for arm 7.1.0/armtools/bin/../lib/gcc/arm-atollic-eabi/5.3.1/../../../../arm-atollic-eabi/lib/armv7-m\libc_nano.a(lib_a-realloc.o)
_reclaim_reent                                    c:/program files (x86)/atollic/truestudio for arm 7.1.0/armtools/bin/../lib/gcc/arm-atollic-eabi/5.3.1/../../../../arm-atollic-eabi/lib/armv7-m\libc_nano.a(lib_a-reent.o)
_sbrk                                             c:/program files (x86)/atollic/truestudio for arm 7.1.0/armtools/bin/../lib/gcc/arm-atollic-eabi/5.3.1/../../../../arm-atollic-eabi/lib/armv7-m\libnosys.a(sbrk.o)
                                                  c:/program files (x86)/atollic/truestudio for arm 7.1.0/armtools/bin/../lib/gcc/arm-atollic-eabi/5.3.1/../../../../arm-atollic-eabi/lib/armv7-m\libc_nano.a(lib_a-sbrkr.o)
_sbrk_r                                           c:/program files (x86)/atollic/truestudio for arm 7.1.0/armtools/bin/../lib/gcc/arm-atollic-eabi/5.3.1/../../../../arm-atollic-eabi/lib/armv7-m\libc_nano.a(lib_a-sbrkr.o)
                                                  c:/program files (x86)/atollic/truestudio for arm 7.1.0/armtools/bin/../lib/gcc/arm-atollic-eabi/5.3.1/../../../../arm-atollic-eabi/lib/armv7-m\libc_nano.a(lib_a-nano-mallocr.o)
_sbss                                             src\startup_LPC17xx.o
_scanf_chars                                      c:/program files (x86)/atollic/truestudio for arm 7.1.0/armtools/bin/../lib/gcc/arm-atollic-eabi/5.3.1/../../../../arm-atollic-eabi/lib/armv7-m\libc_nano.a(lib_a-nano-vfscanf_i.o)
                                                  c:/program files (x86)/atollic/truestudio for arm 7.1.0/armtools/bin/../lib/gcc/arm-atollic-eabi/5.3.1/../../../../arm-atollic-eabi/lib/armv7-m\libc_nano.a(lib_a-nano-svfscanf.o)
_scanf_float                                      c:/program files (x86)/atollic/truestudio for arm 7.1.0/armtools/bin/../lib/gcc/arm-atollic-eabi/5.3.1/../../../../arm-atollic-eabi/lib/armv7-m\libc_nano.a(lib_a-nano-svfscanf.o)
_scanf_i                                          c:/program files (x86)/atollic/truestudio for arm 7.1.0/armtools/bin/../lib/gcc/arm-atollic-eabi/5.3.1/../../../../arm-atollic-eabi/lib/armv7-m\libc_nano.a(lib_a-nano-vfscanf_i.o)
                                                  c:/program files (x86)/atollic/truestudio for arm 7.1.0/armtools/bin/../lib/gcc/arm-atollic-eabi/5.3.1/../../../../arm-atollic-eabi/lib/armv7-m\libc_nano.a(lib_a-nano-svfscanf.o)
_sdata                                            src\startup_LPC17xx.o
_sidata                                           src\startup_LPC17xx.o
_siprintf_r                                       c:/program files (x86)/atollic/truestudio for arm 7.1.0/armtools/bin/../lib/gcc/arm-atollic-eabi/5.3.1/../../../../arm-atollic-eabi/lib/armv7-m\libc_nano.a(lib_a-sprintf.o)
_siscanf_r                                        c:/program files (x86)/atollic/truestudio for arm 7.1.0/armtools/bin/../lib/gcc/arm-atollic-eabi/5.3.1/../../../../arm-atollic-eabi/lib/armv7-m\libc_nano.a(lib_a-sscanf.o)
_sprintf_r                                        c:/program files (x86)/atollic/truestudio for arm 7.1.0/armtools/bin/../lib/gcc/arm-atollic-eabi/5.3.1/../../../../arm-atollic-eabi/lib/armv7-m\libc_nano.a(lib_a-sprintf.o)
_sscanf_r                                         c:/program files (x86)/atollic/truestudio for arm 7.1.0/armtools/bin/../lib/gcc/arm-atollic-eabi/5.3.1/../../../../arm-atollic-eabi/lib/armv7-m\libc_nano.a(lib_a-sscanf.o)
_strtol_r                                         c:/program files (x86)/atollic/truestudio for arm 7.1.0/armtools/bin/../lib/gcc/arm-atollic-eabi/5.3.1/../../../../arm-atollic-eabi/lib/armv7-m\libc_nano.a(lib_a-strtol.o)
                                                  c:/program files (x86)/atollic/truestudio for arm 7.1.0/armtools/bin/../lib/gcc/arm-atollic-eabi/5.3.1/../../../../arm-atollic-eabi/lib/armv7-m\libc_nano.a(lib_a-nano-vfscanf_i.o)
_strtoul_r                                        c:/program files (x86)/atollic/truestudio for arm 7.1.0/armtools/bin/../lib/gcc/arm-atollic-eabi/5.3.1/../../../../arm-atollic-eabi/lib/armv7-m\libc_nano.a(lib_a-strtoul.o)
                                                  c:/program files (x86)/atollic/truestudio for arm 7.1.0/armtools/bin/../lib/gcc/arm-atollic-eabi/5.3.1/../../../../arm-atollic-eabi/lib/armv7-m\libc_nano.a(lib_a-nano-vfscanf_i.o)
_sungetc_r                                        c:/program files (x86)/atollic/truestudio for arm 7.1.0/armtools/bin/../lib/gcc/arm-atollic-eabi/5.3.1/../../../../arm-atollic-eabi/lib/armv7-m\libc_nano.a(lib_a-nano-svfscanf.o)
_svfiprintf_r                                     c:/program files (x86)/atollic/truestudio for arm 7.1.0/armtools/bin/../lib/gcc/arm-atollic-eabi/5.3.1/../../../../arm-atollic-eabi/lib/armv7-m\libc_nano.a(lib_a-nano-svfprintf.o)
_svfprintf_r                                      c:/program files (x86)/atollic/truestudio for arm 7.1.0/armtools/bin/../lib/gcc/arm-atollic-eabi/5.3.1/../../../../arm-atollic-eabi/lib/armv7-m\libc_nano.a(lib_a-nano-svfprintf.o)
                                                  c:/program files (x86)/atollic/truestudio for arm 7.1.0/armtools/bin/../lib/gcc/arm-atollic-eabi/5.3.1/../../../../arm-atollic-eabi/lib/armv7-m\libc_nano.a(lib_a-sprintf.o)
_timezone                                         c:/program files (x86)/atollic/truestudio for arm 7.1.0/armtools/bin/../lib/gcc/arm-atollic-eabi/5.3.1/../../../../arm-atollic-eabi/lib/armv7-m\libc_nano.a(lib_a-tzvars.o)
                                                  c:/program files (x86)/atollic/truestudio for arm 7.1.0/armtools/bin/../lib/gcc/arm-atollic-eabi/5.3.1/../../../../arm-atollic-eabi/lib/armv7-m\libc_nano.a(lib_a-tzset_r.o)
_tzname                                           c:/program files (x86)/atollic/truestudio for arm 7.1.0/armtools/bin/../lib/gcc/arm-atollic-eabi/5.3.1/../../../../arm-atollic-eabi/lib/armv7-m\libc_nano.a(lib_a-tzvars.o)
                                                  c:/program files (x86)/atollic/truestudio for arm 7.1.0/armtools/bin/../lib/gcc/arm-atollic-eabi/5.3.1/../../../../arm-atollic-eabi/lib/armv7-m\libc_nano.a(lib_a-tzset_r.o)
_tzset_r                                          c:/program files (x86)/atollic/truestudio for arm 7.1.0/armtools/bin/../lib/gcc/arm-atollic-eabi/5.3.1/../../../../arm-atollic-eabi/lib/armv7-m\libc_nano.a(lib_a-tzset_r.o)
_tzset_unlocked                                   c:/program files (x86)/atollic/truestudio for arm 7.1.0/armtools/bin/../lib/gcc/arm-atollic-eabi/5.3.1/../../../../arm-atollic-eabi/lib/armv7-m\libc_nano.a(lib_a-tzset.o)
                                                  c:/program files (x86)/atollic/truestudio for arm 7.1.0/armtools/bin/../lib/gcc/arm-atollic-eabi/5.3.1/../../../../arm-atollic-eabi/lib/armv7-m\libc_nano.a(lib_a-mktime.o)
                                                  c:/program files (x86)/atollic/truestudio for arm 7.1.0/armtools/bin/../lib/gcc/arm-atollic-eabi/5.3.1/../../../../arm-atollic-eabi/lib/armv7-m\libc_nano.a(lib_a-lcltime_r.o)
_tzset_unlocked_r                                 c:/program files (x86)/atollic/truestudio for arm 7.1.0/armtools/bin/../lib/gcc/arm-atollic-eabi/5.3.1/../../../../arm-atollic-eabi/lib/armv7-m\libc_nano.a(lib_a-tzset_r.o)
                                                  c:/program files (x86)/atollic/truestudio for arm 7.1.0/armtools/bin/../lib/gcc/arm-atollic-eabi/5.3.1/../../../../arm-atollic-eabi/lib/armv7-m\libc_nano.a(lib_a-tzset.o)
_ungetc_r                                         c:/program files (x86)/atollic/truestudio for arm 7.1.0/armtools/bin/../lib/gcc/arm-atollic-eabi/5.3.1/../../../../arm-atollic-eabi/lib/armv7-m\libc_nano.a(lib_a-ungetc.o)
_vfiprintf_r                                      c:/program files (x86)/atollic/truestudio for arm 7.1.0/armtools/bin/../lib/gcc/arm-atollic-eabi/5.3.1/../../../../arm-atollic-eabi/lib/armv7-m\libc_nano.a(lib_a-nano-vfprintf.o)
_vfprintf_r                                       c:/program files (x86)/atollic/truestudio for arm 7.1.0/armtools/bin/../lib/gcc/arm-atollic-eabi/5.3.1/../../../../arm-atollic-eabi/lib/armv7-m\libc_nano.a(lib_a-nano-vfprintf.o)
                                                  c:/program files (x86)/atollic/truestudio for arm 7.1.0/armtools/bin/../lib/gcc/arm-atollic-eabi/5.3.1/../../../../arm-atollic-eabi/lib/armv7-m\libc_nano.a(lib_a-printf.o)
_write                                            c:/program files (x86)/atollic/truestudio for arm 7.1.0/armtools/bin/../lib/gcc/arm-atollic-eabi/5.3.1/../../../../arm-atollic-eabi/lib/armv7-m\libnosys.a(write.o)
                                                  c:/program files (x86)/atollic/truestudio for arm 7.1.0/armtools/bin/../lib/gcc/arm-atollic-eabi/5.3.1/../../../../arm-atollic-eabi/lib/armv7-m\libc_nano.a(lib_a-writer.o)
_write_r                                          c:/program files (x86)/atollic/truestudio for arm 7.1.0/armtools/bin/../lib/gcc/arm-atollic-eabi/5.3.1/../../../../arm-atollic-eabi/lib/armv7-m\libc_nano.a(lib_a-writer.o)
                                                  c:/program files (x86)/atollic/truestudio for arm 7.1.0/armtools/bin/../lib/gcc/arm-atollic-eabi/5.3.1/../../../../arm-atollic-eabi/lib/armv7-m\libc_nano.a(lib_a-stdio.o)
actionItemToString                                dlms\src\converters.o
addAssociation                                    src\main.o
addKvahRegisterObject                             src\main.o
addKwhRegisterObject                              src\main.o
addLogicalDeviceName                              src\main.o
addPfRegisterObject                               src\main.o
addl1CurrentRegisterObject                        src\main.o
addl1VoltageRegisterObject                        src\main.o
addl2CurrentRegisterObject                        src\main.o
addl2VoltageRegisterObject                        src\main.o
addl3CurrentRegisterObject                        src\main.o
addl3VoltageRegisterObject                        src\main.o
addlineFreq                                       src\main.o
aes_encrypt                                       dlms\src\ciphering.o
apdu_generateAARE                                 dlms\src\apdu.o
                                                  dlms\src\server.o
apdu_generateAarq                                 dlms\src\apdu.o
                                                  dlms\src\client.o
apdu_generateApplicationContextName               dlms\src\apdu.o
apdu_generateUserInformation                      dlms\src\apdu.o
                                                  dlms\src\client.o
apdu_getAuthenticationString                      dlms\src\apdu.o
apdu_getInitiateRequest                           dlms\src\apdu.o
apdu_getUserInformation                           dlms\src\apdu.o
                                                  dlms\src\server.o
apdu_handleResultComponent                        dlms\src\apdu.o
apdu_parseApplicationContextName                  dlms\src\apdu.o
apdu_parsePDU                                     dlms\src\apdu.o
                                                  dlms\src\server.o
                                                  dlms\src\client.o
apdu_parseProtocolVersion                         dlms\src\apdu.o
apdu_parseUserInformation                         dlms\src\apdu.o
apdu_updateAuthentication                         dlms\src\apdu.o
apdu_updatePassword                               dlms\src\apdu.o
apdu_validateAare                                 dlms\src\apdu.o
append                                            dlms\src\converters.o
arr_capacity                                      dlms\src\gxarray.o
                                                  dlms\src\gxset.o
arr_clear                                         dlms\src\gxarray.o
                                                  dlms\src\gxset.o
                                                  dlms\src\gxobjects.o
arr_clearKeyValuePair                             dlms\src\gxarray.o
                                                  dlms\src\gxset.o
                                                  dlms\src\gxobjects.o
arr_clearStrings                                  dlms\src\gxarray.o
                                                  dlms\src\gxset.o
                                                  dlms\src\gxobjects.o
arr_empty                                         dlms\src\gxarray.o
                                                  dlms\src\gxget.o
arr_get                                           dlms\src\gxarray.o
                                                  dlms\src\gxobjects.o
                                                  dlms\src\gxinvoke.o
                                                  dlms\src\gxget.o
arr_getByIndex                                    dlms\src\gxarray.o
                                                  dlms\src\notify.o
                                                  dlms\src\gxset.o
                                                  dlms\src\gxobjects.o
                                                  dlms\src\gxinvoke.o
                                                  dlms\src\gxget.o
                                                  dlms\src\converters.o
                                                  dlms\src\client.o
arr_init                                          dlms\src\gxarray.o
                                                  dlms\src\gxset.o
                                                  dlms\src\gxget.o
arr_push                                          dlms\src\gxarray.o
                                                  dlms\src\notify.o
                                                  dlms\src\gxset.o
                                                  dlms\src\gxinvoke.o
                                                  dlms\src\gxget.o
arr_removeByIndex                                 dlms\src\gxarray.o
                                                  dlms\src\gxinvoke.o
ba_add                                            dlms\src\bitarray.o
                                                  dlms\src\dlms.o
ba_capacity                                       dlms\src\bitarray.o
                                                  dlms\src\gxinvoke.o
ba_clear                                          dlms\src\bitarray.o
                                                  dlms\src\variant.o
                                                  dlms\src\gxset.o
                                                  dlms\src\gxobjects.o
                                                  dlms\src\gxinvoke.o
                                                  dlms\src\apdu.o
ba_copy                                           dlms\src\bitarray.o
                                                  dlms\src\variant.o
                                                  dlms\src\gxset.o
                                                  dlms\src\apdu.o
ba_get                                            dlms\src\bitarray.o
ba_getByIndex                                     dlms\src\bitarray.o
ba_getByteCount                                   dlms\src\bitarray.o
                                                  dlms\src\variant.o
                                                  dlms\src\gxget.o
ba_init                                           dlms\src\bitarray.o
                                                  dlms\src\variant.o
                                                  dlms\src\gxset.o
                                                  dlms\src\gxinvoke.o
                                                  dlms\src\gxget.o
                                                  dlms\src\dlms.o
                                                  dlms\src\apdu.o
ba_set                                            dlms\src\bitarray.o
                                                  dlms\src\gxinvoke.o
                                                  dlms\src\apdu.o
ba_setByIndex                                     dlms\src\bitarray.o
                                                  dlms\src\gxinvoke.o
ba_toInteger                                      dlms\src\bitarray.o
                                                  dlms\src\gxset.o
                                                  dlms\src\apdu.o
ba_toString                                       dlms\src\bitarray.o
                                                  dlms\src\variant.o
                                                  dlms\src\converters.o
                                                  dlms\src\apdu.o
bb_addDoubleAsString                              dlms\src\bytebuffer.o
                                                  dlms\src\converters.o
bb_addHexString                                   dlms\src\bytebuffer.o
                                                  dlms\src\variant.o
bb_addIntAsString                                 dlms\src\bytebuffer.o
                                                  dlms\src\date.o
                                                  dlms\src\converters.o
bb_addString                                      dlms\src\bytebuffer.o
                                                  src\main.o
                                                  dlms\src\variant.o
                                                  dlms\src\helpers.o
                                                  dlms\src\dlmsSettings.o
                                                  dlms\src\dlms.o
                                                  dlms\src\converters.o
bb_attach                                         dlms\src\bytebuffer.o
                                                  dlms\src\dlmsSettings.o
                                                  dlms\src\dlms.o
                                                  dlms\src\date.o
bb_attachString                                   dlms\src\bytebuffer.o
                                                  dlms\src\variant.o
                                                  dlms\src\converters.o
bb_capacity                                       dlms\src\bytebuffer.o
                                                  dlms\src\variant.o
                                                  dlms\src\server.o
                                                  dlms\src\gxsha256.o
                                                  dlms\src\gxsha1.o
                                                  dlms\src\gxobjects.o
                                                  dlms\src\gxmd5.o
                                                  dlms\src\gxget.o
                                                  dlms\src\dlms.o
                                                  dlms\src\client.o
                                                  dlms\src\ciphering.o
                                                  dlms\src\apdu.o
bb_clear                                          dlms\src\bytebuffer.o
                                                  src\main.o
                                                  dlms\src\variant.o
                                                  dlms\src\server.o
                                                  dlms\src\replydata.o
                                                  dlms\src\notify.o
                                                  dlms\src\gxset.o
                                                  dlms\src\gxobjects.o
                                                  dlms\src\gxinvoke.o
                                                  dlms\src\gxget.o
                                                  dlms\src\dlmsSettings.o
                                                  dlms\src\dlms.o
                                                  dlms\src\converters.o
                                                  dlms\src\client.o
                                                  dlms\src\ciphering.o
                                                  dlms\src\apdu.o
bb_compare                                        dlms\src\bytebuffer.o
                                                  dlms\src\gxinvoke.o
                                                  dlms\src\client.o
bb_get                                            dlms\src\bytebuffer.o
                                                  dlms\src\apdu.o
bb_getCapacity                                    dlms\src\bytebuffer.o
                                                  dlms\src\server.o
                                                  dlms\src\gxget.o
bb_getDouble                                      dlms\src\bytebuffer.o
                                                  dlms\src\dlms.o
bb_getFloat                                       dlms\src\bytebuffer.o
                                                  dlms\src\dlms.o
bb_getInt16                                       dlms\src\bytebuffer.o
                                                  dlms\src\dlms.o
bb_getInt32                                       dlms\src\bytebuffer.o
                                                  dlms\src\dlms.o
bb_getInt64                                       dlms\src\bytebuffer.o
                                                  dlms\src\dlms.o
bb_getInt8                                        dlms\src\bytebuffer.o
                                                  dlms\src\dlms.o
bb_getUInt128ByIndex                              dlms\src\bytebuffer.o
bb_getUInt16                                      dlms\src\bytebuffer.o
                                                  dlms\src\server.o
                                                  dlms\src\helpers.o
                                                  dlms\src\gxset.o
                                                  dlms\src\dlms.o
                                                  dlms\src\apdu.o
bb_getUInt16ByIndex                               dlms\src\bytebuffer.o
                                                  dlms\src\dlms.o
bb_getUInt32                                      dlms\src\bytebuffer.o
                                                  dlms\src\server.o
                                                  dlms\src\helpers.o
                                                  dlms\src\gxsha1.o
                                                  dlms\src\gxinvoke.o
                                                  dlms\src\dlms.o
                                                  dlms\src\client.o
                                                  dlms\src\ciphering.o
                                                  dlms\src\apdu.o
bb_getUInt32ByIndex                               dlms\src\bytebuffer.o
bb_getUInt64                                      dlms\src\bytebuffer.o
                                                  dlms\src\dlms.o
bb_getUInt64ByIndex                               dlms\src\bytebuffer.o
bb_getUInt8                                       dlms\src\bytebuffer.o
                                                  dlms\src\variant.o
                                                  dlms\src\server.o
                                                  dlms\src\helpers.o
                                                  dlms\src\gxset.o
                                                  dlms\src\gxinvoke.o
                                                  dlms\src\dlms.o
                                                  dlms\src\client.o
                                                  dlms\src\ciphering.o
                                                  dlms\src\apdu.o
bb_getUInt8ByIndex                                dlms\src\bytebuffer.o
                                                  dlms\src\server.o
                                                  dlms\src\gxset.o
                                                  dlms\src\gxobjects.o
                                                  dlms\src\dlms.o
                                                  dlms\src\bitarray.o
bb_indexOf                                        dlms\src\bytebuffer.o
bb_init                                           dlms\src\bytebuffer.o
                                                  src\main.o
                                                  dlms\src\variant.o
                                                  dlms\src\server.o
                                                  dlms\src\replydata.o
                                                  dlms\src\notify.o
                                                  dlms\src\gxset.o
                                                  dlms\src\gxobjects.o
                                                  dlms\src\gxinvoke.o
                                                  dlms\src\gxget.o
                                                  dlms\src\dlmsSettings.o
                                                  dlms\src\dlms.o
                                                  dlms\src\converters.o
                                                  dlms\src\client.o
                                                  dlms\src\ciphering.o
                                                  dlms\src\apdu.o
bb_insert                                         dlms\src\bytebuffer.o
                                                  dlms\src\dlms.o
bb_insertUInt8                                    dlms\src\bytebuffer.o
                                                  dlms\src\server.o
                                                  dlms\src\gxinvoke.o
bb_isAttached                                     dlms\src\bytebuffer.o
                                                  dlms\src\variant.o
                                                  dlms\src\server.o
                                                  dlms\src\gxget.o
bb_move                                           dlms\src\bytebuffer.o
                                                  dlms\src\dlms.o
bb_set                                            dlms\src\bytebuffer.o
                                                  dlms\src\variant.o
                                                  dlms\src\server.o
                                                  dlms\src\notify.o
                                                  dlms\src\gxsha1.o
                                                  dlms\src\gxset.o
                                                  dlms\src\gxinvoke.o
                                                  dlms\src\gxget.o
                                                  dlms\src\dlms.o
                                                  dlms\src\date.o
                                                  dlms\src\client.o
                                                  dlms\src\ciphering.o
                                                  dlms\src\apdu.o
bb_set2                                           dlms\src\bytebuffer.o
                                                  dlms\src\variant.o
                                                  dlms\src\server.o
                                                  dlms\src\gxset.o
                                                  dlms\src\gxinvoke.o
                                                  dlms\src\gxget.o
                                                  dlms\src\dlms.o
                                                  dlms\src\converters.o
                                                  dlms\src\client.o
                                                  dlms\src\ciphering.o
                                                  dlms\src\apdu.o
bb_setDouble                                      dlms\src\bytebuffer.o
                                                  dlms\src\variant.o
bb_setFloat                                       dlms\src\bytebuffer.o
                                                  dlms\src\variant.o
bb_setInt16                                       dlms\src\bytebuffer.o
                                                  dlms\src\variant.o
                                                  dlms\src\gxget.o
bb_setInt32                                       dlms\src\bytebuffer.o
                                                  dlms\src\variant.o
bb_setInt64                                       dlms\src\bytebuffer.o
                                                  dlms\src\variant.o
bb_setInt8                                        dlms\src\bytebuffer.o
                                                  dlms\src\gxget.o
                                                  dlms\src\dlms.o
                                                  dlms\src\apdu.o
bb_setUInt16                                      dlms\src\bytebuffer.o
                                                  dlms\src\variant.o
                                                  dlms\src\server.o
                                                  dlms\src\helpers.o
                                                  dlms\src\gxset.o
                                                  dlms\src\gxget.o
                                                  dlms\src\dlms.o
                                                  dlms\src\client.o
                                                  dlms\src\apdu.o
bb_setUInt32                                      dlms\src\bytebuffer.o
                                                  dlms\src\variant.o
                                                  dlms\src\server.o
                                                  dlms\src\helpers.o
                                                  dlms\src\gxsha1.o
                                                  dlms\src\gxget.o
                                                  dlms\src\dlms.o
                                                  dlms\src\client.o
                                                  dlms\src\ciphering.o
                                                  dlms\src\apdu.o
bb_setUInt32ByIndex                               dlms\src\bytebuffer.o
bb_setUInt64                                      dlms\src\bytebuffer.o
                                                  dlms\src\variant.o
bb_setUInt8                                       dlms\src\bytebuffer.o
                                                  dlms\src\variant.o
                                                  dlms\src\server.o
                                                  dlms\src\notify.o
                                                  dlms\src\helpers.o
                                                  dlms\src\gxsha1.o
                                                  dlms\src\gxset.o
                                                  dlms\src\gxobjects.o
                                                  dlms\src\gxinvoke.o
                                                  dlms\src\gxget.o
                                                  dlms\src\dlms.o
                                                  dlms\src\date.o
                                                  dlms\src\client.o
                                                  dlms\src\ciphering.o
                                                  dlms\src\apdu.o
bb_setUInt8ByIndex                                dlms\src\bytebuffer.o
                                                  dlms\src\server.o
                                                  dlms\src\client.o
                                                  dlms\src\apdu.o
bb_size                                           dlms\src\bytebuffer.o
                                                  dlms\src\gxset.o
                                                  dlms\src\gxget.o
                                                  dlms\src\dlms.o
                                                  dlms\src\converters.o
                                                  dlms\src\ciphering.o
                                                  dlms\src\apdu.o
bb_subArray                                       dlms\src\bytebuffer.o
bb_toHexString                                    dlms\src\bytebuffer.o
                                                  dlms\src\dlms.o
                                                  dlms\src\converters.o
bb_toString                                       dlms\src\bytebuffer.o
                                                  dlms\src\converters.o
bb_trim                                           dlms\src\bytebuffer.o
                                                  dlms\src\variant.o
                                                  dlms\src\server.o
bb_zero                                           dlms\src\bytebuffer.o
                                                  dlms\src\gxsha1.o
                                                  dlms\src\dlms.o
                                                  dlms\src\ciphering.o
bit                                               dlms\src\helpers.o
calculate_crc16                                   modbus\modbus.o
calloc                                            c:/program files (x86)/atollic/truestudio for arm 7.1.0/armtools/bin/../lib/gcc/arm-atollic-eabi/5.3.1/../../../../arm-atollic-eabi/lib/armv7-m\libc_nano.a(lib_a-calloc.o)
                                                  dlms\src\gxobjects.o
                                                  dlms\src\gxinvoke.o
                                                  dlms\src\cosem.o
capture                                           dlms\src\gxinvoke.o
checkFrame                                        dlms\src\dlmsSettings.o
                                                  dlms\src\dlms.o
cip_clear                                         dlms\src\ciphering.o
                                                  dlms\src\dlmsSettings.o
cip_decrypt                                       dlms\src\ciphering.o
                                                  dlms\src\dlms.o
                                                  dlms\src\apdu.o
cip_decryptKey                                    dlms\src\ciphering.o
cip_encrypt                                       dlms\src\ciphering.o
                                                  dlms\src\dlms.o
                                                  dlms\src\apdu.o
cip_encryptKey                                    dlms\src\ciphering.o
cip_getAuthenticatedData                          dlms\src\ciphering.o
cip_init                                          dlms\src\ciphering.o
                                                  dlms\src\dlmsSettings.o
cip_int                                           dlms\src\ciphering.o
cl_aarqRequest                                    dlms\src\client.o
cl_changeType                                     dlms\src\client.o
cl_clear                                          dlms\src\dlmsSettings.o
cl_disconnectRequest                              dlms\src\client.o
cl_getApplicationAssociationRequest               dlms\src\client.o
cl_getData                                        dlms\src\client.o
cl_getObjectsRequest                              dlms\src\client.o
cl_init                                           dlms\src\dlmsSettings.o
cl_method                                         dlms\src\client.o
cl_methodLN                                       dlms\src\client.o
cl_methodSN                                       dlms\src\client.o
cl_parseAAREResponse                              dlms\src\client.o
cl_parseApplicationAssociationResponse            dlms\src\client.o
cl_parseLNObjects                                 dlms\src\client.o
cl_parseObjects                                   dlms\src\client.o
cl_parseSNObjects                                 dlms\src\client.o
cl_parseUAResponse                                dlms\src\client.o
cl_read                                           dlms\src\client.o
cl_readLN                                         dlms\src\client.o
cl_readList                                       dlms\src\client.o
cl_readRowsByEntry                                dlms\src\client.o
cl_readRowsByEntry2                               dlms\src\client.o
cl_readRowsByRange                                dlms\src\client.o
cl_readSN                                         dlms\src\client.o
cl_receiverReady                                  dlms\src\client.o
cl_releaseRequest                                 dlms\src\client.o
cl_snrmRequest                                    dlms\src\client.o
cl_updateValue                                    dlms\src\client.o
cl_updateValues                                   dlms\src\client.o
cl_write                                          dlms\src\client.o
cl_writeLN                                        dlms\src\client.o
cl_writeSN                                        dlms\src\client.o
cleanup_glue                                      c:/program files (x86)/atollic/truestudio for arm 7.1.0/armtools/bin/../lib/gcc/arm-atollic-eabi/5.3.1/../../../../arm-atollic-eabi/lib/armv7-m\libc_nano.a(lib_a-reent.o)
clear_ProtectionParameter                         dlms\src\gxobjects.o
co_init                                           dlms\src\gxobjects.o
compactDataAppend                                 dlms\src\gxinvoke.o
compactDataAppendArray                            dlms\src\gxinvoke.o
compactData_updateTemplateDescription             dlms\src\gxset.o
construct_rtu_req                                 modbus\modbus.o
cosem_captureCompactData                          dlms\src\gxinvoke.o
cosem_createObject                                dlms\src\cosem.o
                                                  dlms\src\server.o
                                                  dlms\src\notify.o
                                                  dlms\src\gxset.o
                                                  dlms\src\client.o
cosem_createObject2                               dlms\src\cosem.o
cosem_getAccount                                  dlms\src\gxget.o
cosem_getActionSchedule                           dlms\src\gxget.o
cosem_getActivityCalendar                         dlms\src\gxget.o
cosem_getAssociationLogicalName                   dlms\src\gxget.o
cosem_getAssociationShortName                     dlms\src\gxget.o
cosem_getAutoAnswer                               dlms\src\gxget.o
cosem_getAutoConnect                              dlms\src\gxget.o
cosem_getByteBuffer                               dlms\src\gxget.o
cosem_getCharge                                   dlms\src\gxget.o
cosem_getClock                                    dlms\src\gxget.o
cosem_getColumns                                  dlms\src\gxget.o
cosem_getCompactData                              dlms\src\gxget.o
cosem_getCredit                                   dlms\src\gxget.o
cosem_getData                                     dlms\src\gxget.o
                                                  dlms\src\gxinvoke.o
cosem_getDemandRegister                           dlms\src\gxget.o
cosem_getDisconnectControl                        dlms\src\gxget.o
cosem_getExtendedRegister                         dlms\src\gxget.o
cosem_getGprsSetup                                dlms\src\gxget.o
cosem_getGsmDiagnostic                            dlms\src\gxget.o
cosem_getIP4Setup                                 dlms\src\gxget.o
cosem_getIecHdlcSetup                             dlms\src\gxget.o
cosem_getIecLocalPortSetup                        dlms\src\gxget.o
cosem_getImageTransfer                            dlms\src\gxget.o
cosem_getLimiter                                  dlms\src\gxget.o
cosem_getMacAddressSetup                          dlms\src\gxget.o
cosem_getMbusMasterPortSetup                      dlms\src\gxget.o
cosem_getMbusSlavePortSetup                       dlms\src\gxget.o
cosem_getMessageHandler                           dlms\src\gxget.o
cosem_getModemConfiguration                       dlms\src\gxget.o
cosem_getObjectSize                               dlms\src\cosem.o
cosem_getPppSetup                                 dlms\src\gxget.o
cosem_getProfileGeneric                           dlms\src\gxget.o
cosem_getPushSetup                                dlms\src\gxget.o
cosem_getQualityOfService                         dlms\src\gxget.o
cosem_getRegister                                 dlms\src\gxget.o
cosem_getRegisterActivation                       dlms\src\gxget.o
cosem_getRegisterMonitor                          dlms\src\gxget.o
cosem_getRegisterTable                            dlms\src\gxget.o
cosem_getRow                                      dlms\src\gxget.o
cosem_getSapAssignment                            dlms\src\gxget.o
cosem_getSchedule                                 dlms\src\gxget.o
cosem_getScriptTable                              dlms\src\gxget.o
cosem_getSecuritySetup                            dlms\src\gxget.o
cosem_getSpecialDaysTable                         dlms\src\gxget.o
cosem_getTcpUdpSetup                              dlms\src\gxget.o
cosem_getTokenGateway                             dlms\src\gxget.o
cosem_getValue                                    dlms\src\gxget.o
                                                  dlms\src\server.o
                                                  dlms\src\notify.o
                                                  dlms\src\gxset.o
                                                  dlms\src\gxinvoke.o
                                                  dlms\src\client.o
cosem_getZigbeeNetworkControl                     dlms\src\gxget.o
cosem_getmMbusClient                              dlms\src\gxget.o
cosem_init                                        dlms\src\cosem.o
cosem_init2                                       dlms\src\cosem.o
                                                  src\main.o
cosem_invoke                                      dlms\src\gxinvoke.o
                                                  dlms\src\server.o
cosem_setAccount                                  dlms\src\gxset.o
cosem_setActionSchedule                           dlms\src\gxset.o
cosem_setActivityCalendar                         dlms\src\gxset.o
cosem_setAssociationLogicalName                   dlms\src\gxset.o
cosem_setAssociationShortName                     dlms\src\gxset.o
cosem_setAutoAnswer                               dlms\src\gxset.o
cosem_setAutoConnect                              dlms\src\gxset.o
cosem_setCharge                                   dlms\src\gxset.o
cosem_setClock                                    dlms\src\gxset.o
cosem_setCompactData                              dlms\src\gxset.o
cosem_setCredit                                   dlms\src\gxset.o
cosem_setData                                     dlms\src\gxset.o
cosem_setDemandRegister                           dlms\src\gxset.o
cosem_setDisconnectControl                        dlms\src\gxset.o
cosem_setExtendedRegister                         dlms\src\gxset.o
cosem_setGprsSetup                                dlms\src\gxset.o
cosem_setGsmDiagnostic                            dlms\src\gxset.o
cosem_setIP4Setup                                 dlms\src\gxset.o
cosem_setIecHdlcSetup                             dlms\src\gxset.o
cosem_setIecLocalPortSetup                        dlms\src\gxset.o
cosem_setImageTransfer                            dlms\src\gxset.o
cosem_setLimiter                                  dlms\src\gxset.o
cosem_setLogicalName                              dlms\src\cosem.o
                                                  dlms\src\gxset.o
                                                  dlms\src\client.o
cosem_setMacAddressSetup                          dlms\src\gxset.o
cosem_setMbusMasterPortSetup                      dlms\src\gxset.o
cosem_setMbusSlavePortSetup                       dlms\src\gxset.o
cosem_setMessageHandler                           dlms\src\gxset.o
cosem_setModemConfiguration                       dlms\src\gxset.o
cosem_setPppSetup                                 dlms\src\gxset.o
cosem_setProfileGeneric                           dlms\src\gxset.o
cosem_setPushSetup                                dlms\src\gxset.o
cosem_setRegister                                 dlms\src\gxset.o
cosem_setRegisterActivation                       dlms\src\gxset.o
cosem_setRegisterMonitor                          dlms\src\gxset.o
cosem_setRegistertable                            dlms\src\gxset.o
cosem_setSapAssignment                            dlms\src\gxset.o
cosem_setSchedule                                 dlms\src\gxset.o
cosem_setScriptTable                              dlms\src\gxset.o
cosem_setSecuritySetup                            dlms\src\gxset.o
cosem_setSpecialDaysTable                         dlms\src\gxset.o
cosem_setTcpUdpSetup                              dlms\src\gxset.o
cosem_setTokenGateway                             dlms\src\gxset.o
cosem_setValue                                    dlms\src\gxset.o
                                                  dlms\src\server.o
                                                  dlms\src\notify.o
                                                  dlms\src\gxinvoke.o
                                                  dlms\src\client.o
cosem_setmMbusClient                              dlms\src\gxset.o
date_daysInMonth                                  dlms\src\date.o
delayMS                                           modbus\modbus.o
di_init                                           dlms\src\datainfo.o
                                                  dlms\src\server.o
                                                  dlms\src\gxset.o
                                                  dlms\src\gxinvoke.o
                                                  dlms\src\dlms.o
                                                  dlms\src\client.o
div                                               c:/program files (x86)/atollic/truestudio for arm 7.1.0/armtools/bin/../lib/gcc/arm-atollic-eabi/5.3.1/../../../../arm-atollic-eabi/lib/armv7-m\libc_nano.a(lib_a-div.o)
                                                  c:/program files (x86)/atollic/truestudio for arm 7.1.0/armtools/bin/../lib/gcc/arm-atollic-eabi/5.3.1/../../../../arm-atollic-eabi/lib/armv7-m\libc_nano.a(lib_a-mktime.o)
dlms_addLLCBytes                                  dlms\src\dlms.o
                                                  dlms\src\server.o
dlms_appendHdlcParameter                          dlms\src\dlms.o
                                                  dlms\src\server.o
                                                  dlms\src\client.o
dlms_appendMultipleSNBlocks                       dlms\src\dlms.o
dlms_changeType                                   dlms\src\dlms.o
                                                  dlms\src\gxset.o
                                                  dlms\src\gxget.o
                                                  dlms\src\client.o
dlms_changeType2                                  dlms\src\dlms.o
                                                  dlms\src\gxset.o
                                                  dlms\src\gxinvoke.o
dlms_checkHdlcAddress                             dlms\src\dlms.o
dlms_checkInit                                    dlms\src\dlms.o
                                                  dlms\src\client.o
dlms_checkLLCBytes                                dlms\src\dlms.o
dlms_checkWrapperAddress                          dlms\src\dlms.o
dlms_generateChallenge                            dlms\src\dlms.o
                                                  dlms\src\server.o
                                                  dlms\src\client.o
dlms_getActionInfo                                dlms\src\dlms.o
                                                  dlms\src\server.o
                                                  dlms\src\client.o
dlms_getAddress                                   dlms\src\dlms.o
dlms_getAddressBytes                              dlms\src\dlms.o
dlms_getData                                      dlms\src\dlms.o
                                                  dlms\src\server.o
                                                  dlms\src\gxset.o
                                                  dlms\src\gxinvoke.o
                                                  dlms\src\client.o
dlms_getData2                                     dlms\src\dlms.o
                                                  dlms\src\server.o
                                                  dlms\src\notify.o
                                                  dlms\src\client.o
dlms_getDataFromBlock                             dlms\src\dlms.o
dlms_getDataFromFrame                             dlms\src\dlms.o
dlms_getGloMessage                                dlms\src\dlms.o
dlms_getHDLCAddress                               dlms\src\dlms.o
dlms_getHdlcData                                  dlms\src\dlms.o
dlms_getHdlcFrame                                 dlms\src\dlms.o
                                                  dlms\src\server.o
                                                  dlms\src\client.o
dlms_getInvokeIDPriority                          dlms\src\dlms.o
dlms_getLNPdu                                     dlms\src\dlms.o
                                                  dlms\src\server.o
dlms_getLnMessages                                dlms\src\dlms.o
                                                  dlms\src\notify.o
                                                  dlms\src\client.o
dlms_getLongInvokeIDPriority                      dlms\src\dlms.o
dlms_getMaxPduSize                                dlms\src\dlms.o
dlms_getPdu                                       dlms\src\dlms.o
dlms_getSNPdu                                     dlms\src\dlms.o
                                                  dlms\src\server.o
dlms_getSnMessages                                dlms\src\dlms.o
                                                  dlms\src\notify.o
                                                  dlms\src\client.o
dlms_getTcpData                                   dlms\src\dlms.o
dlms_getValueFromData                             dlms\src\dlms.o
dlms_getWrapperFrame                              dlms\src\dlms.o
                                                  dlms\src\server.o
                                                  dlms\src\client.o
dlms_handleDataNotification                       dlms\src\dlms.o
dlms_handleGbt                                    dlms\src\dlms.o
dlms_handleGeneralCiphering                       dlms\src\dlms.o
dlms_handleGetResponse                            dlms\src\dlms.o
dlms_handleMethodResponse                         dlms\src\dlms.o
dlms_handlePush                                   dlms\src\dlms.o
dlms_handleReadResponse                           dlms\src\dlms.o
dlms_handleSetResponse                            dlms\src\dlms.o
dlms_handleWriteResponse                          dlms\src\dlms.o
dlms_handledGloDedRequest                         dlms\src\dlms.o
dlms_handledGloDedResponse                        dlms\src\dlms.o
dlms_isPduFull                                    dlms\src\gxget.o
dlms_multipleBlocks                               dlms\src\dlms.o
dlms_parseSnrmUaResponse                          dlms\src\dlms.o
                                                  dlms\src\server.o
                                                  dlms\src\client.o
dlms_readResponseDataBlockResult                  dlms\src\dlms.o
dlms_receiverReady                                dlms\src\dlms.o
                                                  dlms\src\client.o
dlms_secure                                       dlms\src\dlms.o
                                                  dlms\src\gxinvoke.o
                                                  dlms\src\client.o
dlms_setData                                      dlms\src\dlms.o
                                                  dlms\src\server.o
                                                  dlms\src\notify.o
                                                  dlms\src\gxset.o
                                                  dlms\src\gxinvoke.o
                                                  dlms\src\gxget.o
                                                  dlms\src\client.o
dlms_setData2                                     dlms\src\dlms.o
end                                               c:/program files (x86)/atollic/truestudio for arm 7.1.0/armtools/bin/../lib/gcc/arm-atollic-eabi/5.3.1/../../../../arm-atollic-eabi/lib/armv7-m\libnosys.a(sbrk.o)
energy_meter_init                                 energymeter\LT_energymeter.o
                                                  src\main.o
environ                                           c:/program files (x86)/atollic/truestudio for arm 7.1.0/armtools/bin/../lib/gcc/arm-atollic-eabi/5.3.1/../../../../arm-atollic-eabi/lib/armv7-m\libc_nano.a(lib_a-environ.o)
                                                  c:/program files (x86)/atollic/truestudio for arm 7.1.0/armtools/bin/../lib/gcc/arm-atollic-eabi/5.3.1/../../../../arm-atollic-eabi/lib/armv7-m\libc_nano.a(lib_a-getenv_r.o)
err_toString                                      dlms\src\converters.o
errno                                             c:/program files (x86)/atollic/truestudio for arm 7.1.0/armtools/bin/../lib/gcc/arm-atollic-eabi/5.3.1/../../../../arm-atollic-eabi/lib/armv7-m\libc_nano.a(lib_a-reent.o)
                                                  c:/program files (x86)/atollic/truestudio for arm 7.1.0/armtools/bin/../lib/gcc/arm-atollic-eabi/5.3.1/../../../../arm-atollic-eabi/lib/armv7-m\libnosys.a(write.o)
                                                  c:/program files (x86)/atollic/truestudio for arm 7.1.0/armtools/bin/../lib/gcc/arm-atollic-eabi/5.3.1/../../../../arm-atollic-eabi/lib/armv7-m\libnosys.a(read.o)
                                                  c:/program files (x86)/atollic/truestudio for arm 7.1.0/armtools/bin/../lib/gcc/arm-atollic-eabi/5.3.1/../../../../arm-atollic-eabi/lib/armv7-m\libnosys.a(lseek.o)
                                                  c:/program files (x86)/atollic/truestudio for arm 7.1.0/armtools/bin/../lib/gcc/arm-atollic-eabi/5.3.1/../../../../arm-atollic-eabi/lib/armv7-m\libnosys.a(isatty.o)
                                                  c:/program files (x86)/atollic/truestudio for arm 7.1.0/armtools/bin/../lib/gcc/arm-atollic-eabi/5.3.1/../../../../arm-atollic-eabi/lib/armv7-m\libnosys.a(fstat.o)
                                                  c:/program files (x86)/atollic/truestudio for arm 7.1.0/armtools/bin/../lib/gcc/arm-atollic-eabi/5.3.1/../../../../arm-atollic-eabi/lib/armv7-m\libnosys.a(close.o)
                                                  c:/program files (x86)/atollic/truestudio for arm 7.1.0/armtools/bin/../lib/gcc/arm-atollic-eabi/5.3.1/../../../../arm-atollic-eabi/lib/armv7-m\libc_nano.a(lib_a-isattyr.o)
                                                  c:/program files (x86)/atollic/truestudio for arm 7.1.0/armtools/bin/../lib/gcc/arm-atollic-eabi/5.3.1/../../../../arm-atollic-eabi/lib/armv7-m\libc_nano.a(lib_a-fstatr.o)
                                                  c:/program files (x86)/atollic/truestudio for arm 7.1.0/armtools/bin/../lib/gcc/arm-atollic-eabi/5.3.1/../../../../arm-atollic-eabi/lib/armv7-m\libc_nano.a(lib_a-readr.o)
                                                  c:/program files (x86)/atollic/truestudio for arm 7.1.0/armtools/bin/../lib/gcc/arm-atollic-eabi/5.3.1/../../../../arm-atollic-eabi/lib/armv7-m\libc_nano.a(lib_a-lseekr.o)
                                                  c:/program files (x86)/atollic/truestudio for arm 7.1.0/armtools/bin/../lib/gcc/arm-atollic-eabi/5.3.1/../../../../arm-atollic-eabi/lib/armv7-m\libc_nano.a(lib_a-closer.o)
                                                  c:/program files (x86)/atollic/truestudio for arm 7.1.0/armtools/bin/../lib/gcc/arm-atollic-eabi/5.3.1/../../../../arm-atollic-eabi/lib/armv7-m\libc_nano.a(lib_a-writer.o)
                                                  c:/program files (x86)/atollic/truestudio for arm 7.1.0/armtools/bin/../lib/gcc/arm-atollic-eabi/5.3.1/../../../../arm-atollic-eabi/lib/armv7-m\libc_nano.a(lib_a-sbrkr.o)
fflush                                            c:/program files (x86)/atollic/truestudio for arm 7.1.0/armtools/bin/../lib/gcc/arm-atollic-eabi/5.3.1/../../../../arm-atollic-eabi/lib/armv7-m\libc_nano.a(lib_a-fflush.o)
free                                              c:/program files (x86)/atollic/truestudio for arm 7.1.0/armtools/bin/../lib/gcc/arm-atollic-eabi/5.3.1/../../../../arm-atollic-eabi/lib/armv7-m\libc_nano.a(lib_a-malloc.o)
                                                  c:/program files (x86)/atollic/truestudio for arm 7.1.0/armtools/bin/../lib/gcc/arm-atollic-eabi/5.3.1/../../../../arm-atollic-eabi/lib/armv7-m\libc_nano.a(lib_a-tzset_r.o)
                                                  dlms\src\variant.o
                                                  dlms\src\server.o
                                                  dlms\src\replydata.o
                                                  dlms\src\objectarray.o
                                                  dlms\src\message.o
                                                  dlms\src\helpers.o
                                                  dlms\src\gxvalueeventargs.o
                                                  dlms\src\gxset.o
                                                  dlms\src\gxobjects.o
                                                  dlms\src\gxinvoke.o
                                                  dlms\src\gxarray.o
                                                  dlms\src\dlmsSettings.o
                                                  dlms\src\dlms.o
                                                  dlms\src\converters.o
                                                  dlms\src\client.o
                                                  dlms\src\ciphering.o
                                                  dlms\src\bytebuffer.o
                                                  dlms\src\bitarray.o
                                                  dlms\src\apdu.o
g_pfnVectors                                      src\startup_LPC17xx.o
getActivityCalendarDayProfileTable                dlms\src\gxget.o
getActivityCalendarName                           dlms\src\gxget.o
getActivityCalendarSeasonProfile                  dlms\src\gxget.o
getActivityCalendarWeekProfileTable               dlms\src\gxget.o
getArray                                          dlms\src\dlms.o
getBcd                                            dlms\src\dlms.o
getByteIndex                                      dlms\src\bitarray.o
getColumns                                        dlms\src\gxget.o
getCount                                          dlms\src\dlms.o
getDate                                           dlms\src\dlms.o
getDateFormat                                     dlms\src\date.o
getDateTime                                       dlms\src\dlms.o
getDouble                                         dlms\src\dlms.o
getEnum                                           dlms\src\dlms.o
getFloat                                          dlms\src\dlms.o
getInt16                                          dlms\src\dlms.o
getInt32                                          dlms\src\dlms.o
getInt64                                          dlms\src\dlms.o
getInt8                                           dlms\src\dlms.o
getKeepAlive                                      dlms\src\dlmsSettings.o
                                                  dlms\src\server.o
getLNAccessRights                                 dlms\src\gxget.o
getLNObjects                                      dlms\src\gxget.o
getNextSend                                       dlms\src\dlmsSettings.o
                                                  dlms\src\server.o
                                                  dlms\src\dlms.o
getOctetString                                    dlms\src\dlms.o
getProfileGenericData                             dlms\src\gxget.o
getReceiverReady                                  dlms\src\dlmsSettings.o
                                                  dlms\src\server.o
                                                  dlms\src\dlms.o
getSNAccessRights                                 dlms\src\gxget.o
getSNObjects                                      dlms\src\gxget.o
getSelectedColumns                                dlms\src\gxget.o
getString                                         dlms\src\dlms.o
getTime                                           dlms\src\dlms.o
getUInt16                                         dlms\src\dlms.o
getUInt32                                         dlms\src\dlms.o
getUInt64                                         dlms\src\dlms.o
getUInt8                                          dlms\src\dlms.o
getUnitCharge                                     dlms\src\gxget.o
getUserList                                       dlms\src\gxget.o
getUtfString                                      dlms\src\dlms.o
getValue                                          dlms\src\helpers.o
get_elapsed_time                                  systick_timer\systick_timer.o
                                                  modbus\modbus.o
get_systick_count                                 systick_timer\systick_timer.o
get_time_out_count                                modbus\modbus.o
get_time_out_value                                modbus\modbus.o
gmtime_r                                          c:/program files (x86)/atollic/truestudio for arm 7.1.0/armtools/bin/../lib/gcc/arm-atollic-eabi/5.3.1/../../../../arm-atollic-eabi/lib/armv7-m\libc_nano.a(lib_a-gmtime_r.o)
                                                  c:/program files (x86)/atollic/truestudio for arm 7.1.0/armtools/bin/../lib/gcc/arm-atollic-eabi/5.3.1/../../../../arm-atollic-eabi/lib/armv7-m\libc_nano.a(lib_a-lcltime_r.o)
gxaes_cbc_decrypt                                 dlms\src\gxaes.o
gxaes_cbc_encrypt                                 dlms\src\gxaes.o
gxaes_ecb_decrypt                                 dlms\src\gxaes.o
                                                  dlms\src\ciphering.o
gxaes_ecb_encrypt                                 dlms\src\gxaes.o
                                                  dlms\src\dlms.o
                                                  dlms\src\ciphering.o
gxmd5_F                                           dlms\src\gxmd5.o
gxmd5_FF                                          dlms\src\gxmd5.o
gxmd5_G                                           dlms\src\gxmd5.o
gxmd5_GG                                          dlms\src\gxmd5.o
gxmd5_H                                           dlms\src\gxmd5.o
gxmd5_HH                                          dlms\src\gxmd5.o
gxmd5_I                                           dlms\src\gxmd5.o
gxmd5_II                                          dlms\src\gxmd5.o
gxmd5_decode                                      dlms\src\gxmd5.o
gxmd5_encode                                      dlms\src\gxmd5.o
gxmd5_encrypt                                     dlms\src\gxmd5.o
                                                  dlms\src\dlms.o
gxmd5_rotate_left                                 dlms\src\gxmd5.o
gxmd5_transform                                   dlms\src\gxmd5.o
gxmd5_update                                      dlms\src\gxmd5.o
gxsha1_encrypt                                    dlms\src\gxsha1.o
                                                  dlms\src\dlms.o
gxsha1_final                                      dlms\src\gxsha1.o
gxsha1_transform                                  dlms\src\gxsha1.o
gxsha1_update                                     dlms\src\gxsha1.o
gxsha256_encrypt                                  dlms\src\gxsha256.o
                                                  dlms\src\dlms.o
gxsha256_final                                    dlms\src\gxsha256.o
gxsha256_transform                                dlms\src\gxsha256.o
gxsha256_update                                   dlms\src\gxsha256.o
handleInactivityTimeout                           dlms\src\server.o
handleWriteResponse                               dlms\src\dlms.o
hlp_appendLogicalName                             dlms\src\helpers.o
                                                  dlms\src\converters.o
hlp_bytesToHex                                    dlms\src\helpers.o
                                                  dlms\src\bytebuffer.o
hlp_getDataTypeSize                               dlms\src\helpers.o
hlp_getErrorMessage                               dlms\src\helpers.o
hlp_getLogicalNameToString                        dlms\src\helpers.o
hlp_getObjectCount                                dlms\src\helpers.o
hlp_getObjectCount2                               dlms\src\helpers.o
                                                  dlms\src\server.o
                                                  dlms\src\gxset.o
                                                  dlms\src\dlms.o
                                                  dlms\src\client.o
                                                  dlms\src\ciphering.o
                                                  dlms\src\apdu.o
hlp_getObjectCountSizeInBytes                     dlms\src\helpers.o
                                                  dlms\src\dlms.o
hlp_getScaler                                     dlms\src\helpers.o
                                                  dlms\src\gxset.o
                                                  dlms\src\gxget.o
                                                  dlms\src\converters.o
hlp_hexToBytes                                    dlms\src\helpers.o
                                                  dlms\src\bytebuffer.o
hlp_int64ToString                                 dlms\src\helpers.o
                                                  dlms\src\variant.o
hlp_intToString                                   dlms\src\helpers.o
                                                  dlms\src\variant.o
                                                  dlms\src\bytebuffer.o
hlp_isBigEndian                                   dlms\src\helpers.o
hlp_parseLogicalName                              dlms\src\helpers.o
hlp_printLogicalName                              dlms\src\helpers.o
hlp_rand                                          dlms\src\helpers.o
                                                  dlms\src\dlms.o
hlp_replace                                       dlms\src\helpers.o
hlp_setLogicalName                                dlms\src\helpers.o
                                                  dlms\src\cosem.o
hlp_setLogicalName2                               dlms\src\helpers.o
hlp_setObjectCount                                dlms\src\helpers.o
                                                  dlms\src\variant.o
                                                  dlms\src\server.o
                                                  dlms\src\notify.o
                                                  dlms\src\gxset.o
                                                  dlms\src\gxget.o
                                                  dlms\src\dlms.o
                                                  dlms\src\client.o
                                                  dlms\src\ciphering.o
                                                  dlms\src\apdu.o
hlp_stringToInt                                   dlms\src\helpers.o
                                                  dlms\src\variant.o
hlp_stringToInt64                                 dlms\src\helpers.o
                                                  dlms\src\variant.o
hlp_trace                                         dlms\src\helpers.o
increaseReceiverSequence                          dlms\src\dlmsSettings.o
increaseSendSequence                              dlms\src\dlmsSettings.o
initTimer0                                        modbus\modbus.o
init_ProtectionParameter                          dlms\src\gxobjects.o
init_systick                                      systick_timer\systick_timer.o
invoke_AssociationLogicalName                     dlms\src\gxinvoke.o
invoke_AssociationShortName                       dlms\src\gxinvoke.o
invoke_Charge                                     dlms\src\gxinvoke.o
invoke_Clock                                      dlms\src\gxinvoke.o
invoke_CompactData                                dlms\src\gxinvoke.o
invoke_Credit                                     dlms\src\gxinvoke.o
invoke_ExtendedRegister                           dlms\src\gxinvoke.o
invoke_ImageTransfer                              dlms\src\gxinvoke.o
invoke_ProfileGeneric                             dlms\src\gxinvoke.o
invoke_Register                                   dlms\src\gxinvoke.o
invoke_SapAssigment                               dlms\src\gxinvoke.o
invoke_ScriptTable                                dlms\src\gxinvoke.o
invoke_gxTokenGateway                             dlms\src\gxinvoke.o
invoke_zigbeeNetworkControl                       dlms\src\gxinvoke.o
iprintf                                           c:/program files (x86)/atollic/truestudio for arm 7.1.0/armtools/bin/../lib/gcc/arm-atollic-eabi/5.3.1/../../../../arm-atollic-eabi/lib/armv7-m\libc_nano.a(lib_a-printf.o)
isCiphered                                        dlms\src\dlmsSettings.o
                                                  dlms\src\apdu.o
key_init                                          dlms\src\gxkey.o
                                                  dlms\src\notify.o
                                                  dlms\src\gxset.o
key_init2                                         dlms\src\gxkey.o
lfsr                                              dlms\src\helpers.o
li_init                                           dlms\src\gxobjects.o
localtime                                         c:/program files (x86)/atollic/truestudio for arm 7.1.0/armtools/bin/../lib/gcc/arm-atollic-eabi/5.3.1/../../../../arm-atollic-eabi/lib/armv7-m\libc_nano.a(lib_a-lcltime.o)
                                                  dlms\src\date.o
localtime_r                                       c:/program files (x86)/atollic/truestudio for arm 7.1.0/armtools/bin/../lib/gcc/arm-atollic-eabi/5.3.1/../../../../arm-atollic-eabi/lib/armv7-m\libc_nano.a(lib_a-lcltime_r.o)
                                                  c:/program files (x86)/atollic/truestudio for arm 7.1.0/armtools/bin/../lib/gcc/arm-atollic-eabi/5.3.1/../../../../arm-atollic-eabi/lib/armv7-m\libc_nano.a(lib_a-lcltime.o)
main                                              src\main.o
                                                  src\startup_LPC17xx.o
malloc                                            c:/program files (x86)/atollic/truestudio for arm 7.1.0/armtools/bin/../lib/gcc/arm-atollic-eabi/5.3.1/../../../../arm-atollic-eabi/lib/armv7-m\libc_nano.a(lib_a-malloc.o)
                                                  c:/program files (x86)/atollic/truestudio for arm 7.1.0/armtools/bin/../lib/gcc/arm-atollic-eabi/5.3.1/../../../../arm-atollic-eabi/lib/armv7-m\libc_nano.a(lib_a-lcltime.o)
                                                  dlms\src\variant.o
                                                  dlms\src\server.o
                                                  dlms\src\objectarray.o
                                                  dlms\src\message.o
                                                  dlms\src\helpers.o
                                                  dlms\src\gxvalueeventargs.o
                                                  dlms\src\gxset.o
                                                  dlms\src\gxobjects.o
                                                  dlms\src\gxkey.o
                                                  dlms\src\gxinvoke.o
                                                  dlms\src\gxget.o
                                                  dlms\src\gxarray.o
                                                  dlms\src\dlms.o
                                                  dlms\src\client.o
                                                  dlms\src\bytebuffer.o
                                                  dlms\src\bitarray.o
                                                  dlms\src\apdu.o
memchr                                            c:/program files (x86)/atollic/truestudio for arm 7.1.0/armtools/bin/../lib/gcc/arm-atollic-eabi/5.3.1/../../../../arm-atollic-eabi/lib/armv7-m\libc_nano.a(lib_a-memchr-stub.o)
                                                  c:/program files (x86)/atollic/truestudio for arm 7.1.0/armtools/bin/../lib/gcc/arm-atollic-eabi/5.3.1/../../../../arm-atollic-eabi/lib/armv7-m\libc_nano.a(lib_a-fvwrite.o)
                                                  c:/program files (x86)/atollic/truestudio for arm 7.1.0/armtools/bin/../lib/gcc/arm-atollic-eabi/5.3.1/../../../../arm-atollic-eabi/lib/armv7-m\libc_nano.a(lib_a-nano-vfscanf_i.o)
                                                  c:/program files (x86)/atollic/truestudio for arm 7.1.0/armtools/bin/../lib/gcc/arm-atollic-eabi/5.3.1/../../../../arm-atollic-eabi/lib/armv7-m\libc_nano.a(lib_a-nano-vfprintf_i.o)
                                                  c:/program files (x86)/atollic/truestudio for arm 7.1.0/armtools/bin/../lib/gcc/arm-atollic-eabi/5.3.1/../../../../arm-atollic-eabi/lib/armv7-m\libc_nano.a(lib_a-nano-vfprintf.o)
                                                  c:/program files (x86)/atollic/truestudio for arm 7.1.0/armtools/bin/../lib/gcc/arm-atollic-eabi/5.3.1/../../../../arm-atollic-eabi/lib/armv7-m\libc_nano.a(lib_a-nano-svfscanf.o)
                                                  c:/program files (x86)/atollic/truestudio for arm 7.1.0/armtools/bin/../lib/gcc/arm-atollic-eabi/5.3.1/../../../../arm-atollic-eabi/lib/armv7-m\libc_nano.a(lib_a-nano-svfprintf.o)
memcmp                                            c:/program files (x86)/atollic/truestudio for arm 7.1.0/armtools/bin/../lib/gcc/arm-atollic-eabi/5.3.1/../../../../arm-atollic-eabi/lib/armv7-m\libc_nano.a(lib_a-memcmp.o)
                                                  dlms\src\server.o
                                                  dlms\src\objectarray.o
                                                  dlms\src\gxset.o
                                                  dlms\src\gxinvoke.o
                                                  dlms\src\gxget.o
                                                  dlms\src\dlms.o
                                                  dlms\src\ciphering.o
                                                  dlms\src\bytebuffer.o
memcpy                                            c:/program files (x86)/atollic/truestudio for arm 7.1.0/armtools/bin/../lib/gcc/arm-atollic-eabi/5.3.1/../../../../arm-atollic-eabi/lib/armv7-m\libc_nano.a(lib_a-memcpy-stub.o)
                                                  c:/program files (x86)/atollic/truestudio for arm 7.1.0/armtools/bin/../lib/gcc/arm-atollic-eabi/5.3.1/../../../../arm-atollic-eabi/lib/armv7-m\libc_nano.a(lib_a-fvwrite.o)
                                                  c:/program files (x86)/atollic/truestudio for arm 7.1.0/armtools/bin/../lib/gcc/arm-atollic-eabi/5.3.1/../../../../arm-atollic-eabi/lib/armv7-m\libc_nano.a(lib_a-ungetc.o)
                                                  c:/program files (x86)/atollic/truestudio for arm 7.1.0/armtools/bin/../lib/gcc/arm-atollic-eabi/5.3.1/../../../../arm-atollic-eabi/lib/armv7-m\libc_nano.a(lib_a-nano-svfprintf.o)
                                                  c:/program files (x86)/atollic/truestudio for arm 7.1.0/armtools/bin/../lib/gcc/arm-atollic-eabi/5.3.1/../../../../arm-atollic-eabi/lib/armv7-m\libc_nano.a(lib_a-nano-reallocr.o)
                                                  energymeter\LT_energymeter.o
                                                  dlms\src\variant.o
                                                  dlms\src\notify.o
                                                  dlms\src\helpers.o
                                                  dlms\src\gxsha256.o
                                                  dlms\src\gxset.o
                                                  dlms\src\gxmd5.o
                                                  dlms\src\gxinvoke.o
                                                  dlms\src\gxaes.o
                                                  dlms\src\cosem.o
                                                  dlms\src\ciphering.o
                                                  dlms\src\bytebuffer.o
                                                  dlms\src\bitarray.o
memmove                                           c:/program files (x86)/atollic/truestudio for arm 7.1.0/armtools/bin/../lib/gcc/arm-atollic-eabi/5.3.1/../../../../arm-atollic-eabi/lib/armv7-m\libc_nano.a(lib_a-memmove.o)
                                                  c:/program files (x86)/atollic/truestudio for arm 7.1.0/armtools/bin/../lib/gcc/arm-atollic-eabi/5.3.1/../../../../arm-atollic-eabi/lib/armv7-m\libc_nano.a(lib_a-fvwrite.o)
                                                  c:/program files (x86)/atollic/truestudio for arm 7.1.0/armtools/bin/../lib/gcc/arm-atollic-eabi/5.3.1/../../../../arm-atollic-eabi/lib/armv7-m\libc_nano.a(lib_a-nano-svfprintf.o)
                                                  dlms\src\bytebuffer.o
memset                                            c:/program files (x86)/atollic/truestudio for arm 7.1.0/armtools/bin/../lib/gcc/arm-atollic-eabi/5.3.1/../../../../arm-atollic-eabi/lib/armv7-m\libc_nano.a(lib_a-memset.o)
                                                  c:/program files (x86)/atollic/truestudio for arm 7.1.0/armtools/bin/../lib/gcc/arm-atollic-eabi/5.3.1/../../../../arm-atollic-eabi/lib/armv7-m\libc_nano.a(lib_a-findfp.o)
                                                  c:/program files (x86)/atollic/truestudio for arm 7.1.0/armtools/bin/../lib/gcc/arm-atollic-eabi/5.3.1/../../../../arm-atollic-eabi/lib/armv7-m\libc_nano.a(lib_a-nano-callocr.o)
                                                  modbus\modbus.o
                                                  dlms\src\variant.o
                                                  dlms\src\helpers.o
                                                  dlms\src\gxsha256.o
                                                  dlms\src\gxset.o
                                                  dlms\src\gxobjects.o
                                                  dlms\src\date.o
                                                  dlms\src\cosem.o
                                                  dlms\src\ciphering.o
                                                  dlms\src\bytebuffer.o
mes_clear                                         dlms\src\message.o
                                                  dlms\src\notify.o
                                                  dlms\src\dlms.o
                                                  dlms\src\client.o
mes_init                                          dlms\src\message.o
                                                  dlms\src\dlms.o
mes_push                                          dlms\src\message.o
                                                  dlms\src\dlms.o
                                                  dlms\src\client.o
mktime                                            c:/program files (x86)/atollic/truestudio for arm 7.1.0/armtools/bin/../lib/gcc/arm-atollic-eabi/5.3.1/../../../../arm-atollic-eabi/lib/armv7-m\libc_nano.a(lib_a-mktime.o)
                                                  dlms\src\date.o
modbus_master_init                                modbus\modbus.o
                                                  energymeter\LT_energymeter.o
modbus_uart_send                                  modbus\modbus.o
notify_addData                                    dlms\src\notify.o
notify_generateDataNotificationMessages           dlms\src\notify.o
notify_generateDataNotificationMessages2          dlms\src\notify.o
notify_generatePushSetupMessages                  dlms\src\notify.o
notify_getData                                    dlms\src\notify.o
notify_parsePush                                  dlms\src\notify.o
oa_attach                                         dlms\src\objectarray.o
                                                  src\main.o
oa_capacity                                       dlms\src\objectarray.o
                                                  dlms\src\server.o
                                                  dlms\src\converters.o
                                                  dlms\src\client.o
oa_clear                                          dlms\src\objectarray.o
                                                  dlms\src\server.o
                                                  dlms\src\gxvalueeventargs.o
                                                  dlms\src\dlmsSettings.o
                                                  dlms\src\client.o
oa_clear2                                         dlms\src\objectarray.o
oa_copy                                           dlms\src\objectarray.o
                                                  dlms\src\server.o
oa_empty                                          dlms\src\objectarray.o
                                                  dlms\src\gxset.o
                                                  dlms\src\gxobjects.o
                                                  dlms\src\converters.o
oa_findByLN                                       dlms\src\objectarray.o
                                                  dlms\src\server.o
                                                  dlms\src\notify.o
                                                  dlms\src\gxset.o
oa_findBySN                                       dlms\src\objectarray.o
                                                  dlms\src\gxset.o
oa_getByIndex                                     dlms\src\objectarray.o
                                                  dlms\src\server.o
                                                  dlms\src\gxget.o
                                                  dlms\src\converters.o
oa_getCapacity                                    dlms\src\objectarray.o
oa_getObjects                                     dlms\src\objectarray.o
oa_getObjects2                                    dlms\src\objectarray.o
oa_init                                           dlms\src\objectarray.o
                                                  dlms\src\gxvalueeventargs.o
                                                  dlms\src\dlmsSettings.o
                                                  dlms\src\converters.o
oa_isAttached                                     dlms\src\objectarray.o
oa_push                                           dlms\src\objectarray.o
                                                  dlms\src\server.o
                                                  dlms\src\notify.o
                                                  dlms\src\gxset.o
                                                  dlms\src\converters.o
                                                  dlms\src\client.o
oa_verify                                         dlms\src\objectarray.o
obj_CaptureObjectsToString                        dlms\src\converters.o
obj_CompactDataToString                           dlms\src\converters.o
obj_DataToString                                  dlms\src\converters.o
obj_GPRSSetupToString                             dlms\src\converters.o
obj_GsmDiagnosticToString                         dlms\src\converters.o
obj_ProfileGenericToString                        dlms\src\converters.o
obj_RegisterToString                              dlms\src\converters.o
obj_ScriptTableToString                           dlms\src\converters.o
obj_TcpUdpSetupToString                           dlms\src\converters.o
obj_accountToString                               dlms\src\converters.o
obj_actionScheduleToString                        dlms\src\converters.o
obj_activityCalendarToString                      dlms\src\converters.o
obj_applicationContextNameToString                dlms\src\converters.o
obj_associationLogicalNameToString                dlms\src\converters.o
obj_associationShortNameToString                  dlms\src\converters.o
obj_attributeCount                                dlms\src\gxobjects.o
                                                  dlms\src\server.o
                                                  dlms\src\gxget.o
obj_authenticationMechanismNameToString           dlms\src\converters.o
obj_autoAnswerToString                            dlms\src\converters.o
obj_autoConnectToString                           dlms\src\converters.o
obj_chargeToString                                dlms\src\converters.o
obj_clear                                         dlms\src\gxobjects.o
                                                  dlms\src\objectarray.o
obj_clearActiveDevices                            dlms\src\gxobjects.o
                                                  dlms\src\gxinvoke.o
obj_clearCertificateInfo                          dlms\src\gxobjects.o
                                                  dlms\src\gxset.o
obj_clearChargeTables                             dlms\src\gxobjects.o
                                                  dlms\src\gxset.o
obj_clearCreditChargeConfigurations               dlms\src\gxobjects.o
                                                  dlms\src\gxset.o
obj_clearDayProfileTable                          dlms\src\gxobjects.o
                                                  dlms\src\gxset.o
obj_clearIP4SetupOptions                          dlms\src\gxobjects.o
obj_clearModemConfigurationInitialisationStrings  dlms\src\gxobjects.o
                                                  dlms\src\gxset.o
obj_clearPPPSetupIPCPOptions                      dlms\src\gxobjects.o
obj_clearPPPSetupLCPOptions                       dlms\src\gxobjects.o
obj_clearProfileGenericBuffer                     dlms\src\gxobjects.o
                                                  dlms\src\gxset.o
                                                  dlms\src\gxinvoke.o
                                                  dlms\src\client.o
obj_clearProfileGenericCaptureObjects             dlms\src\gxobjects.o
                                                  dlms\src\gxset.o
obj_clearPushObjectList                           dlms\src\gxobjects.o
                                                  dlms\src\gxset.o
obj_clearRegisterActivationAssignment             dlms\src\gxobjects.o
                                                  dlms\src\gxset.o
obj_clearRegisterActivationMaskList               dlms\src\gxobjects.o
                                                  dlms\src\gxset.o
obj_clearRegisterMonitorActions                   dlms\src\gxobjects.o
                                                  dlms\src\gxset.o
obj_clearSapList                                  dlms\src\gxobjects.o
                                                  dlms\src\gxset.o
obj_clearScriptTable                              dlms\src\gxobjects.o
                                                  dlms\src\gxset.o
obj_clearSeasonProfile                            dlms\src\gxobjects.o
                                                  dlms\src\gxset.o
obj_clearTokenGatewayConfigurations               dlms\src\gxobjects.o
                                                  dlms\src\gxset.o
obj_clearUserList                                 dlms\src\gxobjects.o
                                                  dlms\src\gxset.o
obj_clearWeekProfileTable                         dlms\src\gxobjects.o
                                                  dlms\src\gxset.o
obj_clockToString                                 dlms\src\converters.o
obj_creditToString                                dlms\src\converters.o
obj_dayProfileToString                            dlms\src\converters.o
obj_demandRegisterToString                        dlms\src\converters.o
obj_disconnectControlToString                     dlms\src\converters.o
obj_extendedRegisterToString                      dlms\src\converters.o
obj_getAttributeIndexToRead                       dlms\src\gxobjects.o
obj_getUnitAsString                               dlms\src\converters.o
obj_hdlcSetupToString                             dlms\src\converters.o
obj_imageTransferToString                         dlms\src\converters.o
obj_ip4SetupToString                              dlms\src\converters.o
obj_limiterToString                               dlms\src\converters.o
obj_localPortSetupToString                        dlms\src\converters.o
obj_mBusClientToString                            dlms\src\converters.o
obj_mBusMasterPortSetupToString                   dlms\src\converters.o
obj_macAddressSetupToString                       dlms\src\converters.o
obj_mbusSlavePortSetupToString                    dlms\src\converters.o
obj_messageHandlerToString                        dlms\src\converters.o
obj_methodCount                                   dlms\src\gxobjects.o
                                                  dlms\src\gxinvoke.o
                                                  dlms\src\gxget.o
obj_modemConfigurationToString                    dlms\src\converters.o
obj_objectsToString                               dlms\src\converters.o
obj_pppSetupToString                              dlms\src\converters.o
obj_pushSetupToString                             dlms\src\converters.o
obj_registerActivationToString                    dlms\src\converters.o
obj_registerMonitorToString                       dlms\src\converters.o
obj_rowsToString                                  dlms\src\converters.o
obj_sapAssignmentToString                         dlms\src\converters.o
obj_seasonProfileToString                         dlms\src\converters.o
obj_securitySetupToString                         dlms\src\converters.o
obj_specialDaysTableToString                      dlms\src\converters.o
obj_toString                                      dlms\src\converters.o
obj_tokenGatewayToString                          dlms\src\converters.o
obj_typeToString                                  dlms\src\converters.o
obj_updateAttributeAccessModes                    dlms\src\gxobjects.o
                                                  dlms\src\gxset.o
                                                  dlms\src\client.o
obj_weekProfileToString                           dlms\src\converters.o
obj_xDLMSContextTypeToString                      dlms\src\converters.o
params_initLN                                     dlms\src\parameters.o
                                                  dlms\src\server.o
                                                  dlms\src\notify.o
                                                  dlms\src\dlms.o
                                                  dlms\src\client.o
params_initSN                                     dlms\src\parameters.o
                                                  dlms\src\server.o
                                                  dlms\src\notify.o
                                                  dlms\src\dlms.o
                                                  dlms\src\client.o
pduAttributes                                     dlms\src\dlms.o
printf                                            c:/program files (x86)/atollic/truestudio for arm 7.1.0/armtools/bin/../lib/gcc/arm-atollic-eabi/5.3.1/../../../../arm-atollic-eabi/lib/armv7-m\libc_nano.a(lib_a-printf.o)
                                                  dlms\src\variant.o
                                                  dlms\src\helpers.o
                                                  dlms\src\date.o
profileGeneric_getData                            dlms\src\gxget.o
puts                                              c:/program files (x86)/atollic/truestudio for arm 7.1.0/armtools/bin/../lib/gcc/arm-atollic-eabi/5.3.1/../../../../arm-atollic-eabi/lib/armv7-m\libc_nano.a(lib_a-puts.o)
                                                  src\main.o
qualityOfServiceToString                          dlms\src\converters.o
read                                              energymeter\LT_energymeter.o
readActPower                                      energymeter\LT_energymeter.o
readAppaPower                                     energymeter\LT_energymeter.o
readCurrent                                       energymeter\LT_energymeter.o
                                                  src\main.o
readLineFrequency                                 energymeter\LT_energymeter.o
                                                  src\main.o
readPhaseSequence                                 energymeter\LT_energymeter.o
readPowerFactor                                   energymeter\LT_energymeter.o
readReActPower                                    energymeter\LT_energymeter.o
readTotalActivePower                              energymeter\LT_energymeter.o
                                                  src\main.o
readTotalApparentPower                            energymeter\LT_energymeter.o
                                                  src\main.o
readTotalPowerFactor                              energymeter\LT_energymeter.o
                                                  src\main.o
readVoltage                                       energymeter\LT_energymeter.o
                                                  src\main.o
read_modbus_reg                                   modbus\modbus.o
                                                  energymeter\LT_energymeter.o
realloc                                           c:/program files (x86)/atollic/truestudio for arm 7.1.0/armtools/bin/../lib/gcc/arm-atollic-eabi/5.3.1/../../../../arm-atollic-eabi/lib/armv7-m\libc_nano.a(lib_a-realloc.o)
                                                  dlms\src\variant.o
                                                  dlms\src\objectarray.o
                                                  dlms\src\message.o
                                                  dlms\src\helpers.o
                                                  dlms\src\gxvalueeventargs.o
                                                  dlms\src\gxarray.o
                                                  dlms\src\bytebuffer.o
                                                  dlms\src\bitarray.o
reply                                             src\main.o
reply_clear                                       dlms\src\replydata.o
reply_clear2                                      dlms\src\replydata.o
                                                  dlms\src\server.o
reply_init                                        dlms\src\replydata.o
                                                  dlms\src\dlmsSettings.o
reply_isMoreData                                  dlms\src\replydata.o
req                                               modbus\modbus.o
resetBlockIndex                                   dlms\src\dlmsSettings.o
                                                  dlms\src\server.o
                                                  dlms\src\dlms.o
                                                  dlms\src\client.o
resetFrameSequence                                dlms\src\dlmsSettings.o
                                                  dlms\src\server.o
                                                  dlms\src\client.o
sendReply                                         src\main.o
setCaptureObjects                                 dlms\src\gxset.o
setUnitCharge                                     dlms\src\gxset.o
settings                                          src\main.o
sha256_k                                          dlms\src\gxsha256.o
siprintf                                          c:/program files (x86)/atollic/truestudio for arm 7.1.0/armtools/bin/../lib/gcc/arm-atollic-eabi/5.3.1/../../../../arm-atollic-eabi/lib/armv7-m\libc_nano.a(lib_a-sprintf.o)
siscanf                                           c:/program files (x86)/atollic/truestudio for arm 7.1.0/armtools/bin/../lib/gcc/arm-atollic-eabi/5.3.1/../../../../arm-atollic-eabi/lib/armv7-m\libc_nano.a(lib_a-sscanf.o)
                                                  c:/program files (x86)/atollic/truestudio for arm 7.1.0/armtools/bin/../lib/gcc/arm-atollic-eabi/5.3.1/../../../../arm-atollic-eabi/lib/armv7-m\libc_nano.a(lib_a-tzset_r.o)
sprintf                                           c:/program files (x86)/atollic/truestudio for arm 7.1.0/armtools/bin/../lib/gcc/arm-atollic-eabi/5.3.1/../../../../arm-atollic-eabi/lib/armv7-m\libc_nano.a(lib_a-sprintf.o)
                                                  src\main.o
                                                  dlms\src\variant.o
                                                  dlms\src\date.o
                                                  dlms\src\bytebuffer.o
sscanf                                            c:/program files (x86)/atollic/truestudio for arm 7.1.0/armtools/bin/../lib/gcc/arm-atollic-eabi/5.3.1/../../../../arm-atollic-eabi/lib/armv7-m\libc_nano.a(lib_a-sscanf.o)
                                                  dlms\src\variant.o
strcat                                            c:/program files (x86)/atollic/truestudio for arm 7.1.0/armtools/bin/../lib/gcc/arm-atollic-eabi/5.3.1/../../../../arm-atollic-eabi/lib/armv7-m\libc_nano.a(lib_a-strcat.o)
                                                  dlms\src\converters.o
strchr                                            c:/program files (x86)/atollic/truestudio for arm 7.1.0/armtools/bin/../lib/gcc/arm-atollic-eabi/5.3.1/../../../../arm-atollic-eabi/lib/armv7-m\libc_nano.a(lib_a-strchr.o)
                                                  dlms\src\helpers.o
strcmp                                            c:/program files (x86)/atollic/truestudio for arm 7.1.0/armtools/bin/../lib/gcc/arm-atollic-eabi/5.3.1/../../../../arm-atollic-eabi/lib/armv7-m\libc_nano.a(lib_a-strcmp.o)
                                                  c:/program files (x86)/atollic/truestudio for arm 7.1.0/armtools/bin/../lib/gcc/arm-atollic-eabi/5.3.1/../../../../arm-atollic-eabi/lib/armv7-m\libc_nano.a(lib_a-tzset_r.o)
                                                  dlms\src\variant.o
                                                  dlms\src\apdu.o
strcpy                                            c:/program files (x86)/atollic/truestudio for arm 7.1.0/armtools/bin/../lib/gcc/arm-atollic-eabi/5.3.1/../../../../arm-atollic-eabi/lib/armv7-m\libc_nano.a(lib_a-strcpy.o)
                                                  c:/program files (x86)/atollic/truestudio for arm 7.1.0/armtools/bin/../lib/gcc/arm-atollic-eabi/5.3.1/../../../../arm-atollic-eabi/lib/armv7-m\libc_nano.a(lib_a-tzset_r.o)
strlen                                            c:/program files (x86)/atollic/truestudio for arm 7.1.0/armtools/bin/../lib/gcc/arm-atollic-eabi/5.3.1/../../../../arm-atollic-eabi/lib/armv7-m\libc_nano.a(lib_a-strlen.o)
                                                  c:/program files (x86)/atollic/truestudio for arm 7.1.0/armtools/bin/../lib/gcc/arm-atollic-eabi/5.3.1/../../../../arm-atollic-eabi/lib/armv7-m\libc_nano.a(lib_a-tzset_r.o)
                                                  c:/program files (x86)/atollic/truestudio for arm 7.1.0/armtools/bin/../lib/gcc/arm-atollic-eabi/5.3.1/../../../../arm-atollic-eabi/lib/armv7-m\libc_nano.a(lib_a-sscanf.o)
                                                  dlms\src\helpers.o
                                                  dlms\src\gxget.o
                                                  dlms\src\bytebuffer.o
                                                  dlms\src\apdu.o
strncmp                                           c:/program files (x86)/atollic/truestudio for arm 7.1.0/armtools/bin/../lib/gcc/arm-atollic-eabi/5.3.1/../../../../arm-atollic-eabi/lib/armv7-m\libc_nano.a(lib_a-strncmp.o)
                                                  c:/program files (x86)/atollic/truestudio for arm 7.1.0/armtools/bin/../lib/gcc/arm-atollic-eabi/5.3.1/../../../../arm-atollic-eabi/lib/armv7-m\libc_nano.a(lib_a-getenv_r.o)
strtol                                            c:/program files (x86)/atollic/truestudio for arm 7.1.0/armtools/bin/../lib/gcc/arm-atollic-eabi/5.3.1/../../../../arm-atollic-eabi/lib/armv7-m\libc_nano.a(lib_a-strtol.o)
strtoul                                           c:/program files (x86)/atollic/truestudio for arm 7.1.0/armtools/bin/../lib/gcc/arm-atollic-eabi/5.3.1/../../../../arm-atollic-eabi/lib/armv7-m\libc_nano.a(lib_a-strtoul.o)
                                                  c:/program files (x86)/atollic/truestudio for arm 7.1.0/armtools/bin/../lib/gcc/arm-atollic-eabi/5.3.1/../../../../arm-atollic-eabi/lib/armv7-m\libc_nano.a(lib_a-tzset_r.o)
svr_HandleAarqRequest                             dlms\src\server.o
svr_InitObjects                                   src\main.o
svr_clear                                         dlms\src\dlmsSettings.o
svr_connected                                     src\main.o
                                                  dlms\src\server.o
                                                  dlms\src\dlms.o
svr_copyAssociationView                           dlms\src\server.o
svr_disconnected                                  src\main.o
                                                  dlms\src\server.o
svr_findObject                                    src\main.o
                                                  dlms\src\server.o
svr_findSNObject                                  dlms\src\server.o
svr_generateConfirmedServiceError                 dlms\src\server.o
svr_generateDisconnectRequest                     dlms\src\server.o
svr_getAttributeAccess                            src\main.o
                                                  dlms\src\server.o
                                                  dlms\src\gxget.o
svr_getDataType                                   src\main.o
svr_getMethodAccess                               src\main.o
                                                  dlms\src\server.o
                                                  dlms\src\gxget.o
svr_getReadData                                   dlms\src\server.o
svr_getRequestNextDataBlock                       dlms\src\server.o
svr_getRequestNormal                              dlms\src\server.o
svr_getRequestWithList                            dlms\src\server.o
svr_handleCommand                                 dlms\src\server.o
svr_handleGetRequest                              dlms\src\server.o
svr_handleMethodRequest                           dlms\src\server.o
svr_handleRead                                    dlms\src\server.o
svr_handleReadBlockNumberAccess                   dlms\src\server.o
svr_handleReadDataBlockAccess                     dlms\src\server.o
svr_handleReadRequest                             dlms\src\server.o
svr_handleReleaseRequest                          dlms\src\server.o
svr_handleRequest                                 dlms\src\server.o
svr_handleRequest2                                dlms\src\server.o
svr_handleRequest3                                dlms\src\server.o
                                                  src\main.o
svr_handleSetRequest                              dlms\src\server.o
svr_handleSetRequest2                             dlms\src\server.o
svr_handleSnrmRequest                             dlms\src\server.o
svr_handleWriteRequest                            dlms\src\server.o
svr_hanleSetRequestWithDataBlock                  dlms\src\server.o
svr_init                                          dlms\src\dlmsSettings.o
                                                  src\main.o
svr_initialize                                    dlms\src\server.o
                                                  src\main.o
svr_invalidConnection                             src\main.o
                                                  dlms\src\server.o
svr_isTarget                                      src\main.o
                                                  dlms\src\server.o
                                                  dlms\src\dlms.o
svr_postAction                                    src\main.o
                                                  dlms\src\server.o
svr_postGet                                       src\main.o
svr_postRead                                      src\main.o
                                                  dlms\src\server.o
svr_postWrite                                     src\main.o
                                                  dlms\src\server.o
svr_preAction                                     src\main.o
                                                  dlms\src\server.o
svr_preGet                                        src\main.o
svr_preRead                                       src\main.o
                                                  dlms\src\server.o
svr_preWrite                                      src\main.o
                                                  dlms\src\server.o
svr_reportError                                   dlms\src\server.o
svr_reset                                         dlms\src\server.o
svr_returnSNError                                 dlms\src\server.o
svr_run                                           dlms\src\server.o
svr_setInitialize                                 dlms\src\server.o
svr_updateShortNames                              dlms\src\server.o
svr_validateAuthentication                        src\main.o
                                                  dlms\src\server.o
time_addDays                                      dlms\src\date.o
time_addHours                                     dlms\src\date.o
time_addMinutes                                   dlms\src\date.o
time_addSeconds                                   dlms\src\date.o
time_addTime                                      dlms\src\date.o
                                                  dlms\src\gxinvoke.o
time_clear                                        dlms\src\date.o
                                                  dlms\src\variant.o
                                                  dlms\src\gxset.o
                                                  dlms\src\client.o
time_clearDate                                    dlms\src\date.o
time_clearTime                                    dlms\src\date.o
time_compare                                      dlms\src\date.o
                                                  dlms\src\gxget.o
time_copy                                         dlms\src\date.o
                                                  dlms\src\variant.o
                                                  dlms\src\gxset.o
time_current                                      src\main.o
                                                  dlms\src\server.o
time_elapsed                                      src\main.o
                                                  dlms\src\server.o
time_fromUnixTime                                 dlms\src\date.o
                                                  dlms\src\gxset.o
time_getUtcOffset                                 dlms\src\date.o
time_init                                         dlms\src\date.o
                                                  dlms\src\dlms.o
time_init2                                        dlms\src\date.o
                                                  dlms\src\gxset.o
                                                  dlms\src\client.o
time_init3                                        dlms\src\date.o
time_init4                                        dlms\src\date.o
                                                  dlms\src\gxget.o
time_now                                          src\main.o
                                                  dlms\src\date.o
time_print                                        dlms\src\date.o
time_toString                                     dlms\src\date.o
                                                  dlms\src\variant.o
                                                  dlms\src\converters.o
time_toString2                                    dlms\src\date.o
time_toUnixTime                                   dlms\src\date.o
                                                  dlms\src\client.o
timeoutCount                                      modbus\modbus.o
trans_clear                                       dlms\src\dlmsSettings.o
                                                  dlms\src\server.o
trans_init                                        dlms\src\dlmsSettings.o
tzset                                             c:/program files (x86)/atollic/truestudio for arm 7.1.0/armtools/bin/../lib/gcc/arm-atollic-eabi/5.3.1/../../../../arm-atollic-eabi/lib/armv7-m\libc_nano.a(lib_a-tzset.o)
ungetc                                            c:/program files (x86)/atollic/truestudio for arm 7.1.0/armtools/bin/../lib/gcc/arm-atollic-eabi/5.3.1/../../../../arm-atollic-eabi/lib/armv7-m\libc_nano.a(lib_a-ungetc.o)
updateDayProfileTableActive                       dlms\src\gxset.o
updateInvokeId                                    dlms\src\dlmsSettings.o
                                                  dlms\src\server.o
updateSNAccessRights                              dlms\src\gxset.o
updateSeasonProfile                               dlms\src\gxset.o
updateWeekProfileTable                            dlms\src\gxset.o
usart1_buffer                                     modbus\modbus.o
                                                  energymeter\LT_energymeter.o
usart1_count                                      modbus\modbus.o
                                                  src\main.o
                                                  energymeter\LT_energymeter.o
usart1_status                                     modbus\modbus.o
va_attach                                         dlms\src\variant.o
                                                  dlms\src\gxset.o
                                                  dlms\src\dlms.o
va_capacity                                       dlms\src\variant.o
                                                  dlms\src\gxset.o
                                                  dlms\src\dlms.o
va_clear                                          dlms\src\variant.o
                                                  dlms\src\gxset.o
                                                  dlms\src\gxobjects.o
                                                  dlms\src\gxinvoke.o
va_copyArray                                      dlms\src\variant.o
va_get                                            dlms\src\variant.o
                                                  dlms\src\gxset.o
                                                  dlms\src\gxobjects.o
                                                  dlms\src\gxinvoke.o
                                                  dlms\src\client.o
va_getByIndex                                     dlms\src\variant.o
                                                  dlms\src\notify.o
                                                  dlms\src\gxset.o
                                                  dlms\src\gxobjects.o
                                                  dlms\src\gxinvoke.o
                                                  dlms\src\gxget.o
                                                  dlms\src\dlms.o
                                                  dlms\src\converters.o
va_getCapacity                                    dlms\src\variant.o
va_init                                           dlms\src\variant.o
                                                  dlms\src\gxset.o
                                                  dlms\src\dlms.o
va_isAttached                                     dlms\src\variant.o
va_print                                          dlms\src\variant.o
va_push                                           dlms\src\variant.o
                                                  dlms\src\gxset.o
                                                  dlms\src\gxinvoke.o
                                                  dlms\src\dlms.o
va_toString                                       dlms\src\variant.o
                                                  dlms\src\converters.o
var_addByteArray                                  dlms\src\variant.o
var_addBytes                                      dlms\src\variant.o
                                                  src\main.o
                                                  dlms\src\helpers.o
                                                  dlms\src\dlms.o
var_addOctetString                                dlms\src\variant.o
                                                  dlms\src\gxget.o
var_attach                                        dlms\src\variant.o
                                                  dlms\src\gxset.o
var_attachArray                                   dlms\src\variant.o
var_attachStructure                               dlms\src\variant.o
var_changeType                                    dlms\src\variant.o
                                                  dlms\src\dlms.o
var_clear                                         dlms\src\variant.o
                                                  dlms\src\server.o
                                                  dlms\src\replydata.o
                                                  dlms\src\notify.o
                                                  dlms\src\helpers.o
                                                  dlms\src\gxvalueeventargs.o
                                                  dlms\src\gxset.o
                                                  dlms\src\gxobjects.o
                                                  dlms\src\gxinvoke.o
                                                  dlms\src\gxget.o
                                                  dlms\src\dlms.o
                                                  dlms\src\client.o
var_copy                                          dlms\src\variant.o
                                                  dlms\src\gxset.o
                                                  dlms\src\gxinvoke.o
                                                  dlms\src\gxget.o
var_getBytes                                      dlms\src\variant.o
                                                  dlms\src\gxget.o
var_getBytes2                                     dlms\src\variant.o
                                                  dlms\src\gxget.o
                                                  dlms\src\dlms.o
var_getDate                                       dlms\src\variant.o
var_getDateTime                                   dlms\src\variant.o
var_getDateTime2                                  dlms\src\variant.o
var_getInt16                                      dlms\src\variant.o
var_getInt32                                      dlms\src\variant.o
var_getInt64                                      dlms\src\variant.o
var_getInt8                                       dlms\src\variant.o
var_getSize                                       dlms\src\variant.o
var_getTime                                       dlms\src\variant.o
var_getUInt16                                     dlms\src\variant.o
var_getUInt32                                     dlms\src\variant.o
var_getUInt64                                     dlms\src\variant.o
var_getUInt8                                      dlms\src\variant.o
var_init                                          dlms\src\variant.o
                                                  dlms\src\replydata.o
                                                  dlms\src\gxvalueeventargs.o
                                                  dlms\src\gxset.o
                                                  dlms\src\gxinvoke.o
                                                  dlms\src\gxget.o
                                                  dlms\src\dlms.o
                                                  dlms\src\client.o
var_print                                         dlms\src\variant.o
var_setBoolean                                    dlms\src\variant.o
                                                  dlms\src\gxget.o
var_setDate                                       dlms\src\variant.o
                                                  dlms\src\gxget.o
var_setDateAsOctetString                          dlms\src\variant.o
var_setDateTime                                   dlms\src\variant.o
                                                  dlms\src\gxset.o
                                                  dlms\src\gxget.o
                                                  dlms\src\client.o
var_setDateTimeAsOctetString                      dlms\src\variant.o
                                                  dlms\src\gxget.o
var_setDouble                                     dlms\src\variant.o
                                                  dlms\src\gxset.o
var_setEnum                                       dlms\src\variant.o
                                                  dlms\src\gxget.o
var_setFloat                                      dlms\src\variant.o
var_setInt16                                      dlms\src\variant.o
                                                  dlms\src\gxget.o
var_setInt32                                      dlms\src\variant.o
                                                  dlms\src\gxget.o
var_setInt64                                      dlms\src\variant.o
var_setInt8                                       dlms\src\variant.o
                                                  dlms\src\gxget.o
                                                  dlms\src\client.o
var_setOctetString                                dlms\src\variant.o
var_setString                                     dlms\src\variant.o
                                                  dlms\src\gxget.o
var_setTime                                       dlms\src\variant.o
var_setTimeAsOctetString                          dlms\src\variant.o
                                                  dlms\src\gxget.o
var_setUInt16                                     dlms\src\variant.o
                                                  dlms\src\gxget.o
                                                  dlms\src\client.o
var_setUInt32                                     dlms\src\variant.o
                                                  src\main.o
                                                  dlms\src\gxget.o
                                                  dlms\src\client.o
var_setUInt64                                     dlms\src\variant.o
var_setUInt8                                      dlms\src\variant.o
                                                  dlms\src\gxget.o
var_toDouble                                      dlms\src\variant.o
                                                  dlms\src\gxset.o
                                                  dlms\src\gxget.o
var_toInteger                                     dlms\src\variant.o
                                                  dlms\src\notify.o
                                                  dlms\src\gxset.o
                                                  dlms\src\gxobjects.o
                                                  dlms\src\gxinvoke.o
                                                  dlms\src\gxget.o
                                                  dlms\src\dlms.o
                                                  dlms\src\client.o
var_toString                                      dlms\src\variant.o
                                                  dlms\src\converters.o
ve_clear                                          dlms\src\gxvalueeventargs.o
                                                  dlms\src\gxinvoke.o
                                                  dlms\src\client.o
ve_init                                           dlms\src\gxvalueeventargs.o
                                                  dlms\src\server.o
                                                  dlms\src\notify.o
                                                  dlms\src\gxset.o
                                                  dlms\src\gxinvoke.o
                                                  dlms\src\client.o
vec_capacity                                      dlms\src\gxvalueeventargs.o
vec_clear                                         dlms\src\gxvalueeventargs.o
                                                  dlms\src\server.o
                                                  dlms\src\dlmsSettings.o
vec_empty                                         dlms\src\gxvalueeventargs.o
                                                  dlms\src\server.o
                                                  dlms\src\gxset.o
                                                  dlms\src\gxinvoke.o
vec_get                                           dlms\src\gxvalueeventargs.o
vec_getByIndex                                    dlms\src\gxvalueeventargs.o
                                                  src\main.o
                                                  dlms\src\server.o
vec_init                                          dlms\src\gxvalueeventargs.o
                                                  dlms\src\server.o
                                                  dlms\src\gxset.o
                                                  dlms\src\gxinvoke.o
                                                  dlms\src\dlmsSettings.o
vec_push                                          dlms\src\gxvalueeventargs.o
                                                  dlms\src\server.o
                                                  dlms\src\gxset.o
                                                  dlms\src\gxinvoke.o
vfiprintf                                         c:/program files (x86)/atollic/truestudio for arm 7.1.0/armtools/bin/../lib/gcc/arm-atollic-eabi/5.3.1/../../../../arm-atollic-eabi/lib/armv7-m\libc_nano.a(lib_a-nano-vfprintf.o)
vfprintf                                          c:/program files (x86)/atollic/truestudio for arm 7.1.0/armtools/bin/../lib/gcc/arm-atollic-eabi/5.3.1/../../../../arm-atollic-eabi/lib/armv7-m\libc_nano.a(lib_a-nano-vfprintf.o)
